
MassStorageBootloader_32u4.elf:     file format elf32-avr

Sections:
Idx Name          Size      VMA       LMA       File off  Algn
  0 .data         00000100  00800100  00007e8a  000014d8  2**0
                  CONTENTS, ALLOC, LOAD, DATA
  1 .apitable_jumptable 00000010  00007fe0  00007fe0  000015e8  2**0
                  CONTENTS, ALLOC, LOAD, READONLY, CODE
  2 .apitable_signatures 00000008  00007ff8  00007ff8  000015f8  2**0
                  CONTENTS, ALLOC, LOAD, READONLY, CODE
  3 .apitable_trampolines 00000010  00007fa0  00007fa0  000015d8  2**0
                  CONTENTS, ALLOC, LOAD, READONLY, CODE
  4 .boot_aux     00000516  00006810  00006810  00000138  2**0
                  CONTENTS, ALLOC, LOAD, READONLY, CODE
  5 .boot_aux_trampoline 00000004  00006800  00006800  00000134  2**0
                  CONTENTS, ALLOC, LOAD, READONLY, CODE
  6 .text         00000e8a  00007000  00007000  0000064e  2**1
                  CONTENTS, ALLOC, LOAD, READONLY, CODE
  7 .bss          0000000b  00800200  00800200  00001600  2**0
                  ALLOC
  8 .comment      00000030  00000000  00000000  00001600  2**0
                  CONTENTS, READONLY
  9 .note.gnu.avr.deviceinfo 00000040  00000000  00000000  00001630  2**2
                  CONTENTS, READONLY
 10 .debug_aranges 00000320  00000000  00000000  00001670  2**3
                  CONTENTS, READONLY, DEBUGGING
 11 .debug_info   00005d96  00000000  00000000  00001990  2**0
                  CONTENTS, READONLY, DEBUGGING
 12 .debug_abbrev 000017f9  00000000  00000000  00007726  2**0
                  CONTENTS, READONLY, DEBUGGING
 13 .debug_line   0000a23d  00000000  00000000  00008f1f  2**0
                  CONTENTS, READONLY, DEBUGGING
 14 .debug_frame  00000b30  00000000  00000000  0001315c  2**2
                  CONTENTS, READONLY, DEBUGGING
 15 .debug_str    00017e8b  00000000  00000000  00013c8c  2**0
                  CONTENTS, READONLY, DEBUGGING
 16 .debug_loc    00003ecf  00000000  00000000  0002bb17  2**0
                  CONTENTS, READONLY, DEBUGGING
 17 .debug_ranges 00000c30  00000000  00000000  0002f9e8  2**3
                  CONTENTS, READONLY, DEBUGGING
 18 .debug_macro  00008503  00000000  00000000  00030618  2**0
                  CONTENTS, READONLY, DEBUGGING

Disassembly of section .apitable_jumptable:

00007fe0 <BootloaderAPI_JumpTable>:
; API function jump table
.section .apitable_jumptable, "ax"
.global BootloaderAPI_JumpTable
BootloaderAPI_JumpTable:

	rjmp BootloaderAPI_ErasePage_Trampoline
    7fe0:	df cf       	rjmp	.-66     	; 0x7fa0 <BootloaderAPI_Trampolines>
	rjmp BootloaderAPI_WritePage_Trampoline
    7fe2:	df cf       	rjmp	.-66     	; 0x7fa2 <BootloaderAPI_WritePage_Trampoline>
	rjmp BootloaderAPI_FillWord_Trampoline
    7fe4:	df cf       	rjmp	.-66     	; 0x7fa4 <BootloaderAPI_FillWord_Trampoline>
	rjmp BootloaderAPI_UNUSED1 ; UNUSED ENTRY 1
    7fe6:	df cf       	rjmp	.-66     	; 0x7fa6 <BootloaderAPI_UNUSED1>
	rjmp BootloaderAPI_UNUSED2 ; UNUSED ENTRY 2
    7fe8:	df cf       	rjmp	.-66     	; 0x7fa8 <BootloaderAPI_UNUSED2>
	rjmp BootloaderAPI_UNUSED3 ; UNUSED ENTRY 3
    7fea:	df cf       	rjmp	.-66     	; 0x7faa <BootloaderAPI_UNUSED3>
	rjmp BootloaderAPI_UNUSED4 ; UNUSED ENTRY 4
    7fec:	df cf       	rjmp	.-66     	; 0x7fac <BootloaderAPI_UNUSED4>
	rjmp BootloaderAPI_UNUSED5 ; UNUSED ENTRY 5
    7fee:	df cf       	rjmp	.-66     	; 0x7fae <BootloaderAPI_UNUSED5>

Disassembly of section .apitable_signatures:

00007ff8 <BootloaderAPI_Signatures>:
    7ff8:	00 70       	andi	r16, 0x00	; 0
    7ffa:	00 00       	nop
    7ffc:	30 df       	rcall	.-416    	; 0x7e5e <USB_USBTask+0xa>
    7ffe:	fb dc       	rcall	.-1546   	; 0x79f6 <USB_Init+0x12>

Disassembly of section .apitable_trampolines:

00007fa0 <BootloaderAPI_Trampolines>:
.section .apitable_trampolines, "ax"
.global BootloaderAPI_Trampolines
BootloaderAPI_Trampolines:

	BootloaderAPI_ErasePage_Trampoline:
		jmp BootloaderAPI_ErasePage
    7fa0:	c6 c8       	rjmp	.-3700   	; 0x712e <BootloaderAPI_ErasePage>

00007fa2 <BootloaderAPI_WritePage_Trampoline>:
    7fa2:	d7 c8       	rjmp	.-3666   	; 0x7152 <BootloaderAPI_WritePage>

00007fa4 <BootloaderAPI_FillWord_Trampoline>:
	BootloaderAPI_WritePage_Trampoline:
		jmp BootloaderAPI_WritePage
    7fa4:	e8 c8       	rjmp	.-3632   	; 0x7176 <BootloaderAPI_FillWord>

00007fa6 <BootloaderAPI_UNUSED1>:
    7fa6:	08 95       	ret

00007fa8 <BootloaderAPI_UNUSED2>:
	BootloaderAPI_FillWord_Trampoline:
		jmp BootloaderAPI_FillWord
    7fa8:	08 95       	ret

00007faa <BootloaderAPI_UNUSED3>:
    7faa:	08 95       	ret

00007fac <BootloaderAPI_UNUSED4>:
	BootloaderAPI_UNUSED1:
		ret
    7fac:	08 95       	ret

00007fae <BootloaderAPI_UNUSED5>:
	BootloaderAPI_UNUSED2:
		ret
    7fae:	08 95       	ret

Disassembly of section .boot_aux:

00006810 <main>:

/** Configures the board hardware and chip peripherals for the demo's functionality. */
static void SetupHardware(void)
{
    /* Disable watchdog if enabled by bootloader/fuses */
    MCUSR &= ~(1 << WDRF);
    6810:	84 b7       	in	r24, 0x34	; 52
    6812:	87 7f       	andi	r24, 0xF7	; 247
    6814:	84 bf       	out	0x34, r24	; 52
		);
	}
	else
	{
        uint8_t register temp_reg;
		__asm__ __volatile__ (
    6816:	0f b6       	in	r0, 0x3f	; 63
    6818:	f8 94       	cli
    681a:	a8 95       	wdr
    681c:	80 91 60 00 	lds	r24, 0x0060
    6820:	88 61       	ori	r24, 0x18	; 24
    6822:	80 93 60 00 	sts	0x0060, r24
    6826:	10 92 60 00 	sts	0x0060, r1
    682a:	0f be       	out	0x3f, r0	; 63
from 1 to 129. Thus, one does not need to use \c clock_div_t type as argument.
*/
void clock_prescale_set(clock_div_t __x)
{
    uint8_t __tmp = _BV(CLKPCE);
    __asm__ __volatile__ (
    682c:	90 e0       	ldi	r25, 0x00	; 0
    682e:	80 e8       	ldi	r24, 0x80	; 128
    6830:	0f b6       	in	r0, 0x3f	; 63
    6832:	f8 94       	cli
    6834:	80 93 61 00 	sts	0x0061, r24
    6838:	90 93 61 00 	sts	0x0061, r25
    683c:	0f be       	out	0x3f, r0	; 63

    /* Disable clock division */
    clock_prescale_set(clock_div_1);

    /* Relocate the interrupt vector table to the bootloader section */
    MCUCR = (1 << IVCE);
    683e:	81 e0       	ldi	r24, 0x01	; 1
    6840:	85 bf       	out	0x35, r24	; 53
    MCUCR = (1 << IVSEL);
    6842:	82 e0       	ldi	r24, 0x02	; 2
    6844:	85 bf       	out	0x35, r24	; 53

    /* Hardware Initialization */
    USB_Init();
    6846:	0e 94 f2 3c 	call	0x79e4	; 0x79e4 <USB_Init>
			static inline void GlobalInterruptEnable(void)
			{
				GCC_MEMORY_BARRIER();

				#if (ARCH == ARCH_AVR8)
				sei();
    684a:	78 94       	sei
				__builtin_csrf(AVR32_SR_GM_OFFSET);
				#elif (ARCH == ARCH_XMEGA)
				sei();
				#endif

				GCC_MEMORY_BARRIER();
    684c:	05 c0       	rjmp	.+10     	; 0x6858 <main+0x48>

    GlobalInterruptEnable();

    while (RunBootloader || TicksSinceLastCommand++ < 0xFF)
    {
        MS_Device_USBTask(&Disk_MS_Interface);
    684e:	81 e0       	ldi	r24, 0x01	; 1
    6850:	91 e0       	ldi	r25, 0x01	; 1
    6852:	f5 d4       	rcall	.+2538   	; 0x723e <MS_Device_USBTask>
        USB_USBTask();
    6854:	0e 94 2a 3f 	call	0x7e54	; 0x7e54 <USB_USBTask>
{
    SetupHardware();

    GlobalInterruptEnable();

    while (RunBootloader || TicksSinceLastCommand++ < 0xFF)
    6858:	80 91 00 01 	lds	r24, 0x0100
    685c:	81 11       	cpse	r24, r1
    685e:	f7 cf       	rjmp	.-18     	; 0x684e <main+0x3e>
    6860:	80 91 00 02 	lds	r24, 0x0200
    6864:	91 e0       	ldi	r25, 0x01	; 1
    6866:	98 0f       	add	r25, r24
    6868:	90 93 00 02 	sts	0x0200, r25
    686c:	8f 3f       	cpi	r24, 0xFF	; 255
    686e:	79 f7       	brne	.-34     	; 0x684e <main+0x3e>
			 *  enumerating the device once attached until \ref USB_Attach() is called.
			 */
			static inline void USB_Detach(void) ATTR_ALWAYS_INLINE;
			static inline void USB_Detach(void)
			{
				UDCON  |=  (1 << DETACH);
    6870:	e0 ee       	ldi	r30, 0xE0	; 224
    6872:	f0 e0       	ldi	r31, 0x00	; 0
    6874:	80 81       	ld	r24, Z
    6876:	81 60       	ori	r24, 0x01	; 1
    6878:	80 83       	st	Z, r24
				: "r0"
		);
	}
	else
	{
		__asm__ __volatile__ (
    687a:	9c e0       	ldi	r25, 0x0C	; 12
    687c:	88 e1       	ldi	r24, 0x18	; 24
    687e:	0f b6       	in	r0, 0x3f	; 63
    6880:	f8 94       	cli
    6882:	a8 95       	wdr
    6884:	80 93 60 00 	sts	0x0060, r24
    6888:	0f be       	out	0x3f, r0	; 63
    688a:	90 93 60 00 	sts	0x0060, r25
    USB_Detach();

    /* Enable the watchdog and force a timeout to reset the AVR */
    wdt_enable(WDTO_250MS);

    for (;;);
    688e:	ff cf       	rjmp	.-2      	; 0x688e <main+0x7e>

00006890 <EVENT_USB_Device_Connect>:
    USB_Init();
}

/** Event handler for the USB_Connect event. This indicates that the device is enumerating via the status LEDs. */
void EVENT_USB_Device_Connect(void)
{
    6890:	08 95       	ret

00006892 <EVENT_USB_Device_Disconnect>:

/** Event handler for the USB_Disconnect event. This indicates that the device is no longer connected to a host via
 *  the status LEDs and stops the Mass Storage management task.
 */
void EVENT_USB_Device_Disconnect(void)
{
    6892:	08 95       	ret

00006894 <EVENT_USB_Device_ConfigurationChanged>:
void EVENT_USB_Device_ConfigurationChanged(void)
{
	bool ConfigSuccess = true;

	/* Setup Mass Storage Data Endpoints */
	ConfigSuccess &= MS_Device_ConfigureEndpoints(&Disk_MS_Interface);
    6894:	81 e0       	ldi	r24, 0x01	; 1
    6896:	91 e0       	ldi	r25, 0x01	; 1
    6898:	b8 c4       	rjmp	.+2416   	; 0x720a <MS_Device_ConfigureEndpoints>
    689a:	08 95       	ret

0000689c <EVENT_USB_Device_ControlRequest>:
}

/** Event handler for the library USB Control Request reception event. */
void EVENT_USB_Device_ControlRequest(void)
{
	MS_Device_ProcessControlRequest(&Disk_MS_Interface);
    689c:	81 e0       	ldi	r24, 0x01	; 1
    689e:	91 e0       	ldi	r25, 0x01	; 1
    68a0:	77 c4       	rjmp	.+2286   	; 0x7190 <MS_Device_ProcessControlRequest>
    68a2:	08 95       	ret

000068a4 <CALLBACK_MS_Device_SCSICommandReceived>:
 */
bool CALLBACK_MS_Device_SCSICommandReceived(USB_ClassInfo_MS_Device_t* const MSInterfaceInfo)
{
	bool CommandSuccess;

	CommandSuccess = SCSI_DecodeSCSICommand(MSInterfaceInfo);
    68a4:	72 d0       	rcall	.+228    	; 0x698a <SCSI_DecodeSCSICommand>

	/* Signal that a command was processed, must not exit bootloader yet */
	TicksSinceLastCommand = 0;
    68a6:	10 92 00 02 	sts	0x0200, r1

	return CommandSuccess;
}
    68aa:	08 95       	ret

000068ac <CALLBACK_USB_GetDescriptor>:

	const void* Address = NULL;
	uint16_t    Size    = NO_DESCRIPTOR;

	/* If/Else If chain compiles slightly smaller than a switch case */
	if (DescriptorType == DTYPE_Device)
    68ac:	91 30       	cpi	r25, 0x01	; 1
    68ae:	39 f0       	breq	.+14     	; 0x68be <CALLBACK_USB_GetDescriptor+0x12>
	{
		Address = &DeviceDescriptor;
		Size    = sizeof(USB_Descriptor_Device_t);
	}
	else if (DescriptorType == DTYPE_Configuration)
    68b0:	92 30       	cpi	r25, 0x02	; 2
    68b2:	51 f4       	brne	.+20     	; 0x68c8 <CALLBACK_USB_GetDescriptor+0x1c>
	{
		Address = &ConfigurationDescriptor;
		Size    = sizeof(USB_Descriptor_Configuration_t);
    68b4:	80 e2       	ldi	r24, 0x20	; 32
    68b6:	90 e0       	ldi	r25, 0x00	; 0
		Address = &DeviceDescriptor;
		Size    = sizeof(USB_Descriptor_Device_t);
	}
	else if (DescriptorType == DTYPE_Configuration)
	{
		Address = &ConfigurationDescriptor;
    68b8:	2c e6       	ldi	r18, 0x6C	; 108
    68ba:	31 e0       	ldi	r19, 0x01	; 1
    68bc:	09 c0       	rjmp	.+18     	; 0x68d0 <CALLBACK_USB_GetDescriptor+0x24>

	/* If/Else If chain compiles slightly smaller than a switch case */
	if (DescriptorType == DTYPE_Device)
	{
		Address = &DeviceDescriptor;
		Size    = sizeof(USB_Descriptor_Device_t);
    68be:	82 e1       	ldi	r24, 0x12	; 18
    68c0:	90 e0       	ldi	r25, 0x00	; 0
	uint16_t    Size    = NO_DESCRIPTOR;

	/* If/Else If chain compiles slightly smaller than a switch case */
	if (DescriptorType == DTYPE_Device)
	{
		Address = &DeviceDescriptor;
    68c2:	2c e8       	ldi	r18, 0x8C	; 140
    68c4:	31 e0       	ldi	r19, 0x01	; 1
    68c6:	04 c0       	rjmp	.+8      	; 0x68d0 <CALLBACK_USB_GetDescriptor+0x24>
                                    const void** const DescriptorAddress)
{
	const uint8_t DescriptorType = (wValue >> 8);

	const void* Address = NULL;
	uint16_t    Size    = NO_DESCRIPTOR;
    68c8:	80 e0       	ldi	r24, 0x00	; 0
    68ca:	90 e0       	ldi	r25, 0x00	; 0
                                    const uint8_t wIndex,
                                    const void** const DescriptorAddress)
{
	const uint8_t DescriptorType = (wValue >> 8);

	const void* Address = NULL;
    68cc:	20 e0       	ldi	r18, 0x00	; 0
    68ce:	30 e0       	ldi	r19, 0x00	; 0
	{
		Address = &ConfigurationDescriptor;
		Size    = sizeof(USB_Descriptor_Configuration_t);
	}

	*DescriptorAddress = Address;
    68d0:	fa 01       	movw	r30, r20
    68d2:	31 83       	std	Z+1, r19	; 0x01
    68d4:	20 83       	st	Z, r18
	return Size;
}
    68d6:	08 95       	ret

000068d8 <SCSI_Command_ReadWrite_10>:
 *
 *  \return Boolean \c true if the command completed successfully, \c false otherwise.
 */
static bool SCSI_Command_ReadWrite_10(USB_ClassInfo_MS_Device_t* const MSInterfaceInfo,
                                      const bool IsDataRead)
{
    68d8:	bf 92       	push	r11
    68da:	cf 92       	push	r12
    68dc:	df 92       	push	r13
    68de:	ef 92       	push	r14
    68e0:	ff 92       	push	r15
    68e2:	0f 93       	push	r16
    68e4:	1f 93       	push	r17
    68e6:	cf 93       	push	r28
    68e8:	df 93       	push	r29
    68ea:	fc 01       	movw	r30, r24
    68ec:	b6 2e       	mov	r11, r22

				Temp = Data.Bytes[1];
				Data.Bytes[1] = Data.Bytes[2];
				Data.Bytes[2] = Temp;

				return Data.DWord;
    68ee:	40 a1       	ldd	r20, Z+32	; 0x20
    68f0:	57 8d       	ldd	r21, Z+31	; 0x1f

				Temp = Data.Bytes[0];
				Data.Bytes[0] = Data.Bytes[1];
				Data.Bytes[1] = Temp;

				return Data.Word;
    68f2:	e3 a0       	ldd	r14, Z+35	; 0x23
    68f4:	f2 a0       	ldd	r15, Z+34	; 0x22

	/* Load in the 16-bit total blocks (SCSI uses big-endian, so have to reverse the byte order) */
	TotalBlocks  = SwapEndian_16(*(uint16_t*)&MSInterfaceInfo->State.CommandBlock.SCSICommandData[7]);

	/* Check if the block address is outside the maximum allowable value for the LUN */
	if (BlockAddress >= LUN_MEDIA_BLOCKS)
    68f6:	46 35       	cpi	r20, 0x56	; 86
    68f8:	51 05       	cpc	r21, r1
    68fa:	28 f4       	brcc	.+10     	; 0x6906 <SCSI_Command_ReadWrite_10+0x2e>
    68fc:	8c 01       	movw	r16, r24

		return false;
	}

	/* Determine if the packet is a READ (10) or WRITE (10) command, call appropriate function */
	for (uint16_t i = 0; i < TotalBlocks; i++)
    68fe:	e1 14       	cp	r14, r1
    6900:	f1 04       	cpc	r15, r1
    6902:	71 f4       	brne	.+28     	; 0x6920 <SCSI_Command_ReadWrite_10+0x48>
    6904:	1c c0       	rjmp	.+56     	; 0x693e <SCSI_Command_ReadWrite_10+0x66>

	/* Check if the block address is outside the maximum allowable value for the LUN */
	if (BlockAddress >= LUN_MEDIA_BLOCKS)
	{
		/* Block address is invalid, update SENSE key and return command fail */
		SCSI_SET_SENSE(SCSI_SENSE_KEY_ILLEGAL_REQUEST,
    6906:	ec e3       	ldi	r30, 0x3C	; 60
    6908:	f1 e0       	ldi	r31, 0x01	; 1
    690a:	80 81       	ld	r24, Z
    690c:	80 7f       	andi	r24, 0xF0	; 240
    690e:	85 60       	ori	r24, 0x05	; 5
    6910:	80 83       	st	Z, r24
    6912:	ea e3       	ldi	r30, 0x3A	; 58
    6914:	f1 e0       	ldi	r31, 0x01	; 1
    6916:	81 e2       	ldi	r24, 0x21	; 33
    6918:	84 87       	std	Z+12, r24	; 0x0c
    691a:	15 86       	std	Z+13, r1	; 0x0d
		               SCSI_ASENSE_LOGICAL_BLOCK_ADDRESS_OUT_OF_RANGE,
		               SCSI_ASENSEQ_NO_QUALIFIER);

		return false;
    691c:	80 e0       	ldi	r24, 0x00	; 0
    691e:	2b c0       	rjmp	.+86     	; 0x6976 <SCSI_Command_ReadWrite_10+0x9e>
    6920:	ea 01       	movw	r28, r20
    6922:	67 01       	movw	r12, r14
    6924:	c4 0e       	add	r12, r20
    6926:	d5 1e       	adc	r13, r21
	}

	/* Determine if the packet is a READ (10) or WRITE (10) command, call appropriate function */
	for (uint16_t i = 0; i < TotalBlocks; i++)
	{
		if (IsDataRead == DATA_READ)
    6928:	bb 20       	and	r11, r11
    692a:	19 f0       	breq	.+6      	; 0x6932 <SCSI_Command_ReadWrite_10+0x5a>
		  VirtualFAT_ReadBlock(BlockAddress + i);
    692c:	ce 01       	movw	r24, r28
    692e:	a4 d1       	rcall	.+840    	; 0x6c78 <VirtualFAT_ReadBlock>
    6930:	02 c0       	rjmp	.+4      	; 0x6936 <SCSI_Command_ReadWrite_10+0x5e>
		else
    		VirtualFAT_WriteBlock(BlockAddress + i);
    6932:	ce 01       	movw	r24, r28
    6934:	24 d1       	rcall	.+584    	; 0x6b7e <VirtualFAT_WriteBlock>
    6936:	21 96       	adiw	r28, 0x01	; 1

		return false;
	}

	/* Determine if the packet is a READ (10) or WRITE (10) command, call appropriate function */
	for (uint16_t i = 0; i < TotalBlocks; i++)
    6938:	cc 15       	cp	r28, r12
    693a:	dd 05       	cpc	r29, r13
    693c:	a9 f7       	brne	.-22     	; 0x6928 <SCSI_Command_ReadWrite_10+0x50>
		else
    		VirtualFAT_WriteBlock(BlockAddress + i);
	}

	/* Update the bytes transferred counter and succeed the command */
	MSInterfaceInfo->State.CommandBlock.DataTransferLength -= ((uint32_t)TotalBlocks * SECTOR_SIZE_BYTES);
    693e:	c7 01       	movw	r24, r14
    6940:	a0 e0       	ldi	r26, 0x00	; 0
    6942:	b0 e0       	ldi	r27, 0x00	; 0
    6944:	07 2e       	mov	r0, r23
    6946:	79 e0       	ldi	r23, 0x09	; 9
    6948:	88 0f       	add	r24, r24
    694a:	99 1f       	adc	r25, r25
    694c:	aa 1f       	adc	r26, r26
    694e:	bb 1f       	adc	r27, r27
    6950:	7a 95       	dec	r23
    6952:	d1 f7       	brne	.-12     	; 0x6948 <SCSI_Command_ReadWrite_10+0x70>
    6954:	70 2d       	mov	r23, r0
    6956:	f8 01       	movw	r30, r16
    6958:	44 89       	ldd	r20, Z+20	; 0x14
    695a:	55 89       	ldd	r21, Z+21	; 0x15
    695c:	66 89       	ldd	r22, Z+22	; 0x16
    695e:	77 89       	ldd	r23, Z+23	; 0x17
    6960:	6a 01       	movw	r12, r20
    6962:	7b 01       	movw	r14, r22
    6964:	c8 1a       	sub	r12, r24
    6966:	d9 0a       	sbc	r13, r25
    6968:	ea 0a       	sbc	r14, r26
    696a:	fb 0a       	sbc	r15, r27
    696c:	c4 8a       	std	Z+20, r12	; 0x14
    696e:	d5 8a       	std	Z+21, r13	; 0x15
    6970:	e6 8a       	std	Z+22, r14	; 0x16
    6972:	f7 8a       	std	Z+23, r15	; 0x17

	return true;
    6974:	81 e0       	ldi	r24, 0x01	; 1
}
    6976:	df 91       	pop	r29
    6978:	cf 91       	pop	r28
    697a:	1f 91       	pop	r17
    697c:	0f 91       	pop	r16
    697e:	ff 90       	pop	r15
    6980:	ef 90       	pop	r14
    6982:	df 90       	pop	r13
    6984:	cf 90       	pop	r12
    6986:	bf 90       	pop	r11
    6988:	08 95       	ret

0000698a <SCSI_DecodeSCSICommand>:
 *  \param[in] MSInterfaceInfo  Pointer to the Mass Storage class interface structure that the command is associated with
 *
 *  \return Boolean \c true if the command completed successfully, \c false otherwise
 */
bool SCSI_DecodeSCSICommand(USB_ClassInfo_MS_Device_t* const MSInterfaceInfo)
{
    698a:	ef 92       	push	r14
    698c:	ff 92       	push	r15
    698e:	0f 93       	push	r16
    6990:	1f 93       	push	r17
    6992:	cf 93       	push	r28
    6994:	df 93       	push	r29
    6996:	ec 01       	movw	r28, r24
	bool CommandSuccess = false;

	/* Run the appropriate SCSI command hander function based on the passed command */
	switch (MSInterfaceInfo->State.CommandBlock.SCSICommandData[0])
    6998:	9b 8d       	ldd	r25, Y+27	; 0x1b
    699a:	9f 31       	cpi	r25, 0x1F	; 31
    699c:	a0 f4       	brcc	.+40     	; 0x69c6 <SCSI_DecodeSCSICommand+0x3c>
    699e:	9d 31       	cpi	r25, 0x1D	; 29
    69a0:	08 f0       	brcs	.+2      	; 0x69a4 <SCSI_DecodeSCSICommand+0x1a>
    69a2:	c5 c0       	rjmp	.+394    	; 0x6b2e <SCSI_DecodeSCSICommand+0x1a4>
    69a4:	92 31       	cpi	r25, 0x12	; 18
    69a6:	f1 f0       	breq	.+60     	; 0x69e4 <SCSI_DecodeSCSICommand+0x5a>
    69a8:	38 f4       	brcc	.+14     	; 0x69b8 <SCSI_DecodeSCSICommand+0x2e>
    69aa:	99 23       	and	r25, r25
    69ac:	09 f4       	brne	.+2      	; 0x69b0 <SCSI_DecodeSCSICommand+0x26>
    69ae:	bf c0       	rjmp	.+382    	; 0x6b2e <SCSI_DecodeSCSICommand+0x1a4>
    69b0:	93 30       	cpi	r25, 0x03	; 3
    69b2:	09 f4       	brne	.+2      	; 0x69b6 <SCSI_DecodeSCSICommand+0x2c>
    69b4:	52 c0       	rjmp	.+164    	; 0x6a5a <SCSI_DecodeSCSICommand+0xd0>
    69b6:	c0 c0       	rjmp	.+384    	; 0x6b38 <SCSI_DecodeSCSICommand+0x1ae>
    69b8:	9a 31       	cpi	r25, 0x1A	; 26
    69ba:	09 f4       	brne	.+2      	; 0x69be <SCSI_DecodeSCSICommand+0x34>
    69bc:	99 c0       	rjmp	.+306    	; 0x6af0 <SCSI_DecodeSCSICommand+0x166>
    69be:	9b 31       	cpi	r25, 0x1B	; 27
    69c0:	09 f4       	brne	.+2      	; 0x69c4 <SCSI_DecodeSCSICommand+0x3a>
    69c2:	ad c0       	rjmp	.+346    	; 0x6b1e <SCSI_DecodeSCSICommand+0x194>
    69c4:	b9 c0       	rjmp	.+370    	; 0x6b38 <SCSI_DecodeSCSICommand+0x1ae>
    69c6:	98 32       	cpi	r25, 0x28	; 40
    69c8:	09 f4       	brne	.+2      	; 0x69cc <SCSI_DecodeSCSICommand+0x42>
    69ca:	8e c0       	rjmp	.+284    	; 0x6ae8 <SCSI_DecodeSCSICommand+0x15e>
    69cc:	20 f4       	brcc	.+8      	; 0x69d6 <SCSI_DecodeSCSICommand+0x4c>
    69ce:	95 32       	cpi	r25, 0x25	; 37
    69d0:	09 f4       	brne	.+2      	; 0x69d4 <SCSI_DecodeSCSICommand+0x4a>
    69d2:	69 c0       	rjmp	.+210    	; 0x6aa6 <SCSI_DecodeSCSICommand+0x11c>
    69d4:	b1 c0       	rjmp	.+354    	; 0x6b38 <SCSI_DecodeSCSICommand+0x1ae>
    69d6:	9a 32       	cpi	r25, 0x2A	; 42
    69d8:	09 f4       	brne	.+2      	; 0x69dc <SCSI_DecodeSCSICommand+0x52>
    69da:	82 c0       	rjmp	.+260    	; 0x6ae0 <SCSI_DecodeSCSICommand+0x156>
    69dc:	9f 32       	cpi	r25, 0x2F	; 47
    69de:	09 f4       	brne	.+2      	; 0x69e2 <SCSI_DecodeSCSICommand+0x58>
    69e0:	a6 c0       	rjmp	.+332    	; 0x6b2e <SCSI_DecodeSCSICommand+0x1a4>
    69e2:	aa c0       	rjmp	.+340    	; 0x6b38 <SCSI_DecodeSCSICommand+0x1ae>
    69e4:	0f 8d       	ldd	r16, Y+31	; 0x1f
    69e6:	1e 8d       	ldd	r17, Y+30	; 0x1e
{
	uint16_t AllocationLength  = SwapEndian_16(*(uint16_t*)&MSInterfaceInfo->State.CommandBlock.SCSICommandData[3]);
	uint16_t BytesTransferred  = MIN(AllocationLength, sizeof(InquiryData));

	/* Only the standard INQUIRY data is supported, check if any optional INQUIRY bits set */
	if ((MSInterfaceInfo->State.CommandBlock.SCSICommandData[1] & ((1 << 0) | (1 << 1))) ||
    69e8:	9c 8d       	ldd	r25, Y+28	; 0x1c
    69ea:	93 70       	andi	r25, 0x03	; 3
    69ec:	19 f4       	brne	.+6      	; 0x69f4 <SCSI_DecodeSCSICommand+0x6a>
    69ee:	8d 8d       	ldd	r24, Y+29	; 0x1d
    69f0:	88 23       	and	r24, r24
    69f2:	61 f0       	breq	.+24     	; 0x6a0c <SCSI_DecodeSCSICommand+0x82>
	     MSInterfaceInfo->State.CommandBlock.SCSICommandData[2])
	{
		/* Optional but unsupported bits set - update the SENSE key and fail the request */
		SCSI_SET_SENSE(SCSI_SENSE_KEY_ILLEGAL_REQUEST,
    69f4:	ec e3       	ldi	r30, 0x3C	; 60
    69f6:	f1 e0       	ldi	r31, 0x01	; 1
    69f8:	80 81       	ld	r24, Z
    69fa:	80 7f       	andi	r24, 0xF0	; 240
    69fc:	85 60       	ori	r24, 0x05	; 5
    69fe:	80 83       	st	Z, r24
    6a00:	ea e3       	ldi	r30, 0x3A	; 58
    6a02:	f1 e0       	ldi	r31, 0x01	; 1
    6a04:	84 e2       	ldi	r24, 0x24	; 36
    6a06:	84 87       	std	Z+12, r24	; 0x0c
    6a08:	15 86       	std	Z+13, r1	; 0x0d
    6a0a:	b1 c0       	rjmp	.+354    	; 0x6b6e <SCSI_DecodeSCSICommand+0x1e4>
 *  \return Boolean \c true if the command completed successfully, \c false otherwise.
 */
static bool SCSI_Command_Inquiry(USB_ClassInfo_MS_Device_t* const MSInterfaceInfo)
{
	uint16_t AllocationLength  = SwapEndian_16(*(uint16_t*)&MSInterfaceInfo->State.CommandBlock.SCSICommandData[3]);
	uint16_t BytesTransferred  = MIN(AllocationLength, sizeof(InquiryData));
    6a0c:	78 01       	movw	r14, r16
    6a0e:	05 32       	cpi	r16, 0x25	; 37
    6a10:	11 05       	cpc	r17, r1
    6a12:	28 f0       	brcs	.+10     	; 0x6a1e <SCSI_DecodeSCSICommand+0x94>
    6a14:	0f 2e       	mov	r0, r31
    6a16:	f4 e2       	ldi	r31, 0x24	; 36
    6a18:	ef 2e       	mov	r14, r31
    6a1a:	f1 2c       	mov	r15, r1
    6a1c:	f0 2d       	mov	r31, r0
		               SCSI_ASENSEQ_NO_QUALIFIER);

		return false;
	}

	Endpoint_Write_Stream_LE(&InquiryData, BytesTransferred, NULL);
    6a1e:	40 e0       	ldi	r20, 0x00	; 0
    6a20:	50 e0       	ldi	r21, 0x00	; 0
    6a22:	b7 01       	movw	r22, r14
    6a24:	8e e9       	ldi	r24, 0x9E	; 158
    6a26:	91 e0       	ldi	r25, 0x01	; 1
    6a28:	8c d5       	rcall	.+2840   	; 0x7542 <Endpoint_Write_Stream_LE>

	/* Pad out remaining bytes with 0x00 */
	Endpoint_Null_Stream((AllocationLength - BytesTransferred), NULL);
    6a2a:	60 e0       	ldi	r22, 0x00	; 0
    6a2c:	70 e0       	ldi	r23, 0x00	; 0
    6a2e:	c8 01       	movw	r24, r16
    6a30:	8e 19       	sub	r24, r14
    6a32:	9f 09       	sbc	r25, r15
    6a34:	37 d5       	rcall	.+2670   	; 0x74a4 <Endpoint_Null_Stream>
			 */
			static inline void Endpoint_ClearIN(void) ATTR_ALWAYS_INLINE;
			static inline void Endpoint_ClearIN(void)
			{
				#if !defined(CONTROL_ONLY_DEVICE)
					UEINTX &= ~((1 << TXINI) | (1 << FIFOCON));
    6a36:	e8 ee       	ldi	r30, 0xE8	; 232
    6a38:	f0 e0       	ldi	r31, 0x00	; 0
    6a3a:	80 81       	ld	r24, Z
    6a3c:	8e 77       	andi	r24, 0x7E	; 126
    6a3e:	80 83       	st	Z, r24

	/* Finalize the stream transfer to send the last packet */
	Endpoint_ClearIN();

	/* Succeed the command and update the bytes transferred counter */
	MSInterfaceInfo->State.CommandBlock.DataTransferLength -= BytesTransferred;
    6a40:	8c 89       	ldd	r24, Y+20	; 0x14
    6a42:	9d 89       	ldd	r25, Y+21	; 0x15
    6a44:	ae 89       	ldd	r26, Y+22	; 0x16
    6a46:	bf 89       	ldd	r27, Y+23	; 0x17
    6a48:	8e 19       	sub	r24, r14
    6a4a:	9f 09       	sbc	r25, r15
    6a4c:	a1 09       	sbc	r26, r1
    6a4e:	b1 09       	sbc	r27, r1
    6a50:	8c 8b       	std	Y+20, r24	; 0x14
    6a52:	9d 8b       	std	Y+21, r25	; 0x15
    6a54:	ae 8b       	std	Y+22, r26	; 0x16
    6a56:	bf 8b       	std	Y+23, r27	; 0x17
    6a58:	7d c0       	rjmp	.+250    	; 0x6b54 <SCSI_DecodeSCSICommand+0x1ca>
 *
 *  \return Boolean \c true if the command completed successfully, \c false otherwise.
 */
static bool SCSI_Command_Request_Sense(USB_ClassInfo_MS_Device_t* const MSInterfaceInfo)
{
	uint8_t AllocationLength = MSInterfaceInfo->State.CommandBlock.SCSICommandData[4];
    6a5a:	1f 8d       	ldd	r17, Y+31	; 0x1f
	uint8_t BytesTransferred = MIN(AllocationLength, sizeof(SenseData));
    6a5c:	01 2f       	mov	r16, r17
    6a5e:	13 31       	cpi	r17, 0x13	; 19
    6a60:	08 f0       	brcs	.+2      	; 0x6a64 <SCSI_DecodeSCSICommand+0xda>
    6a62:	02 e1       	ldi	r16, 0x12	; 18

	Endpoint_Write_Stream_LE(&SenseData, BytesTransferred, NULL);
    6a64:	e0 2e       	mov	r14, r16
    6a66:	f1 2c       	mov	r15, r1
    6a68:	40 e0       	ldi	r20, 0x00	; 0
    6a6a:	50 e0       	ldi	r21, 0x00	; 0
    6a6c:	b7 01       	movw	r22, r14
    6a6e:	8a e3       	ldi	r24, 0x3A	; 58
    6a70:	91 e0       	ldi	r25, 0x01	; 1
    6a72:	67 d5       	rcall	.+2766   	; 0x7542 <Endpoint_Write_Stream_LE>
	Endpoint_Null_Stream((AllocationLength - BytesTransferred), NULL);
    6a74:	81 2f       	mov	r24, r17
    6a76:	90 e0       	ldi	r25, 0x00	; 0
    6a78:	60 e0       	ldi	r22, 0x00	; 0
    6a7a:	70 e0       	ldi	r23, 0x00	; 0
    6a7c:	8e 19       	sub	r24, r14
    6a7e:	9f 09       	sbc	r25, r15
    6a80:	11 d5       	rcall	.+2594   	; 0x74a4 <Endpoint_Null_Stream>
    6a82:	e8 ee       	ldi	r30, 0xE8	; 232
    6a84:	f0 e0       	ldi	r31, 0x00	; 0
    6a86:	80 81       	ld	r24, Z
    6a88:	8e 77       	andi	r24, 0x7E	; 126
    6a8a:	80 83       	st	Z, r24
	Endpoint_ClearIN();

	/* Succeed the command and update the bytes transferred counter */
	MSInterfaceInfo->State.CommandBlock.DataTransferLength -= BytesTransferred;
    6a8c:	8c 89       	ldd	r24, Y+20	; 0x14
    6a8e:	9d 89       	ldd	r25, Y+21	; 0x15
    6a90:	ae 89       	ldd	r26, Y+22	; 0x16
    6a92:	bf 89       	ldd	r27, Y+23	; 0x17
    6a94:	80 1b       	sub	r24, r16
    6a96:	91 09       	sbc	r25, r1
    6a98:	a1 09       	sbc	r26, r1
    6a9a:	b1 09       	sbc	r27, r1
    6a9c:	8c 8b       	std	Y+20, r24	; 0x14
    6a9e:	9d 8b       	std	Y+21, r25	; 0x15
    6aa0:	ae 8b       	std	Y+22, r26	; 0x16
    6aa2:	bf 8b       	std	Y+23, r27	; 0x17
		case SCSI_CMD_INQUIRY:
			CommandSuccess = SCSI_Command_Inquiry(MSInterfaceInfo);
			break;
		case SCSI_CMD_REQUEST_SENSE:
			CommandSuccess = SCSI_Command_Request_Sense(MSInterfaceInfo);
			break;
    6aa4:	57 c0       	rjmp	.+174    	; 0x6b54 <SCSI_DecodeSCSICommand+0x1ca>
			 *  \param[in] Data  Data to write to the currently selected endpoint's FIFO buffer.
			 */
			static inline void Endpoint_Write_32_BE(const uint32_t Data) ATTR_ALWAYS_INLINE;
			static inline void Endpoint_Write_32_BE(const uint32_t Data)
			{
				UEDATX = (Data >> 24);
    6aa6:	e1 ef       	ldi	r30, 0xF1	; 241
    6aa8:	f0 e0       	ldi	r31, 0x00	; 0
    6aaa:	10 82       	st	Z, r1
				UEDATX = (Data >> 16);
    6aac:	10 82       	st	Z, r1
				UEDATX = (Data >> 8);
    6aae:	10 82       	st	Z, r1
				UEDATX = (Data &  0xFF);
    6ab0:	85 e5       	ldi	r24, 0x55	; 85
    6ab2:	80 83       	st	Z, r24
			 *  \param[in] Data  Data to write to the currently selected endpoint's FIFO buffer.
			 */
			static inline void Endpoint_Write_32_BE(const uint32_t Data) ATTR_ALWAYS_INLINE;
			static inline void Endpoint_Write_32_BE(const uint32_t Data)
			{
				UEDATX = (Data >> 24);
    6ab4:	10 82       	st	Z, r1
				UEDATX = (Data >> 16);
    6ab6:	10 82       	st	Z, r1
				UEDATX = (Data >> 8);
    6ab8:	82 e0       	ldi	r24, 0x02	; 2
    6aba:	80 83       	st	Z, r24
				UEDATX = (Data &  0xFF);
    6abc:	10 82       	st	Z, r1
			 */
			static inline void Endpoint_ClearIN(void) ATTR_ALWAYS_INLINE;
			static inline void Endpoint_ClearIN(void)
			{
				#if !defined(CONTROL_ONLY_DEVICE)
					UEINTX &= ~((1 << TXINI) | (1 << FIFOCON));
    6abe:	e8 ee       	ldi	r30, 0xE8	; 232
    6ac0:	f0 e0       	ldi	r31, 0x00	; 0
    6ac2:	80 81       	ld	r24, Z
    6ac4:	8e 77       	andi	r24, 0x7E	; 126
    6ac6:	80 83       	st	Z, r24
	Endpoint_Write_32_BE(LUN_MEDIA_BLOCKS - 1);
	Endpoint_Write_32_BE(SECTOR_SIZE_BYTES);
	Endpoint_ClearIN();

	/* Succeed the command and update the bytes transferred counter */
	MSInterfaceInfo->State.CommandBlock.DataTransferLength -= 8;
    6ac8:	8c 89       	ldd	r24, Y+20	; 0x14
    6aca:	9d 89       	ldd	r25, Y+21	; 0x15
    6acc:	ae 89       	ldd	r26, Y+22	; 0x16
    6ace:	bf 89       	ldd	r27, Y+23	; 0x17
    6ad0:	08 97       	sbiw	r24, 0x08	; 8
    6ad2:	a1 09       	sbc	r26, r1
    6ad4:	b1 09       	sbc	r27, r1
    6ad6:	8c 8b       	std	Y+20, r24	; 0x14
    6ad8:	9d 8b       	std	Y+21, r25	; 0x15
    6ada:	ae 8b       	std	Y+22, r26	; 0x16
    6adc:	bf 8b       	std	Y+23, r27	; 0x17
		case SCSI_CMD_REQUEST_SENSE:
			CommandSuccess = SCSI_Command_Request_Sense(MSInterfaceInfo);
			break;
		case SCSI_CMD_READ_CAPACITY_10:
			CommandSuccess = SCSI_Command_Read_Capacity_10(MSInterfaceInfo);
			break;
    6ade:	3a c0       	rjmp	.+116    	; 0x6b54 <SCSI_DecodeSCSICommand+0x1ca>
		case SCSI_CMD_WRITE_10:
			CommandSuccess = SCSI_Command_ReadWrite_10(MSInterfaceInfo, DATA_WRITE);
    6ae0:	60 e0       	ldi	r22, 0x00	; 0
    6ae2:	ce 01       	movw	r24, r28
    6ae4:	f9 de       	rcall	.-526    	; 0x68d8 <SCSI_Command_ReadWrite_10>
			break;
    6ae6:	34 c0       	rjmp	.+104    	; 0x6b50 <SCSI_DecodeSCSICommand+0x1c6>
		case SCSI_CMD_READ_10:
			CommandSuccess = SCSI_Command_ReadWrite_10(MSInterfaceInfo, DATA_READ);
    6ae8:	61 e0       	ldi	r22, 0x01	; 1
    6aea:	ce 01       	movw	r24, r28
    6aec:	f5 de       	rcall	.-534    	; 0x68d8 <SCSI_Command_ReadWrite_10>
			break;
    6aee:	30 c0       	rjmp	.+96     	; 0x6b50 <SCSI_DecodeSCSICommand+0x1c6>
			 *  \param[in] Data  Data to write to the currently selected endpoint's FIFO buffer.
			 */
			static inline void Endpoint_Write_32_LE(const uint32_t Data) ATTR_ALWAYS_INLINE;
			static inline void Endpoint_Write_32_LE(const uint32_t Data)
			{
				UEDATX = (Data &  0xFF);
    6af0:	e1 ef       	ldi	r30, 0xF1	; 241
    6af2:	f0 e0       	ldi	r31, 0x00	; 0
    6af4:	10 82       	st	Z, r1
				UEDATX = (Data >> 8);
    6af6:	10 82       	st	Z, r1
				UEDATX = (Data >> 16);
    6af8:	10 82       	st	Z, r1
				UEDATX = (Data >> 24);
    6afa:	10 82       	st	Z, r1
			 */
			static inline void Endpoint_ClearIN(void) ATTR_ALWAYS_INLINE;
			static inline void Endpoint_ClearIN(void)
			{
				#if !defined(CONTROL_ONLY_DEVICE)
					UEINTX &= ~((1 << TXINI) | (1 << FIFOCON));
    6afc:	e8 ee       	ldi	r30, 0xE8	; 232
    6afe:	f0 e0       	ldi	r31, 0x00	; 0
    6b00:	80 81       	ld	r24, Z
    6b02:	8e 77       	andi	r24, 0x7E	; 126
    6b04:	80 83       	st	Z, r24
	/* Send an empty header response indicating Write Protect flag is off */
	Endpoint_Write_32_LE(0);
	Endpoint_ClearIN();

	/* Update the bytes transferred counter and succeed the command */
	MSInterfaceInfo->State.CommandBlock.DataTransferLength -= 4;
    6b06:	8c 89       	ldd	r24, Y+20	; 0x14
    6b08:	9d 89       	ldd	r25, Y+21	; 0x15
    6b0a:	ae 89       	ldd	r26, Y+22	; 0x16
    6b0c:	bf 89       	ldd	r27, Y+23	; 0x17
    6b0e:	04 97       	sbiw	r24, 0x04	; 4
    6b10:	a1 09       	sbc	r26, r1
    6b12:	b1 09       	sbc	r27, r1
    6b14:	8c 8b       	std	Y+20, r24	; 0x14
    6b16:	9d 8b       	std	Y+21, r25	; 0x15
    6b18:	ae 8b       	std	Y+22, r26	; 0x16
    6b1a:	bf 8b       	std	Y+23, r27	; 0x17
		case SCSI_CMD_READ_10:
			CommandSuccess = SCSI_Command_ReadWrite_10(MSInterfaceInfo, DATA_READ);
			break;
		case SCSI_CMD_MODE_SENSE_6:
			CommandSuccess = SCSI_Command_ModeSense_6(MSInterfaceInfo);
			break;
    6b1c:	1b c0       	rjmp	.+54     	; 0x6b54 <SCSI_DecodeSCSICommand+0x1ca>
		case SCSI_CMD_START_STOP_UNIT:
#if !defined(NO_APP_START_ON_EJECT)
			/* If the user ejected the volume, signal bootloader exit at next opportunity. */
			RunBootloader = ((MSInterfaceInfo->State.CommandBlock.SCSICommandData[4] & 0x03) != 0x02);
    6b1e:	8f 8d       	ldd	r24, Y+31	; 0x1f
    6b20:	83 70       	andi	r24, 0x03	; 3
    6b22:	91 e0       	ldi	r25, 0x01	; 1
    6b24:	82 30       	cpi	r24, 0x02	; 2
    6b26:	09 f4       	brne	.+2      	; 0x6b2a <SCSI_DecodeSCSICommand+0x1a0>
    6b28:	90 e0       	ldi	r25, 0x00	; 0
    6b2a:	90 93 00 01 	sts	0x0100, r25
		case SCSI_CMD_TEST_UNIT_READY:
		case SCSI_CMD_PREVENT_ALLOW_MEDIUM_REMOVAL:
		case SCSI_CMD_VERIFY_10:
			/* These commands should just succeed, no handling required */
			CommandSuccess = true;
			MSInterfaceInfo->State.CommandBlock.DataTransferLength = 0;
    6b2e:	1c 8a       	std	Y+20, r1	; 0x14
    6b30:	1d 8a       	std	Y+21, r1	; 0x15
    6b32:	1e 8a       	std	Y+22, r1	; 0x16
    6b34:	1f 8a       	std	Y+23, r1	; 0x17
			break;
    6b36:	0e c0       	rjmp	.+28     	; 0x6b54 <SCSI_DecodeSCSICommand+0x1ca>
		default:
			/* Update the SENSE key to reflect the invalid command */
			SCSI_SET_SENSE(SCSI_SENSE_KEY_ILLEGAL_REQUEST,
    6b38:	ec e3       	ldi	r30, 0x3C	; 60
    6b3a:	f1 e0       	ldi	r31, 0x01	; 1
    6b3c:	80 81       	ld	r24, Z
    6b3e:	80 7f       	andi	r24, 0xF0	; 240
    6b40:	85 60       	ori	r24, 0x05	; 5
    6b42:	80 83       	st	Z, r24
    6b44:	ea e3       	ldi	r30, 0x3A	; 58
    6b46:	f1 e0       	ldi	r31, 0x01	; 1
    6b48:	80 e2       	ldi	r24, 0x20	; 32
    6b4a:	84 87       	std	Z+12, r24	; 0x0c
    6b4c:	15 86       	std	Z+13, r1	; 0x0d
		                   SCSI_ASENSE_INVALID_COMMAND,
		                   SCSI_ASENSEQ_NO_QUALIFIER);
			break;
    6b4e:	0f c0       	rjmp	.+30     	; 0x6b6e <SCSI_DecodeSCSICommand+0x1e4>
	}

	/* Check if command was successfully processed */
	if (CommandSuccess)
    6b50:	88 23       	and	r24, r24
    6b52:	59 f0       	breq	.+22     	; 0x6b6a <SCSI_DecodeSCSICommand+0x1e0>
	{
		SCSI_SET_SENSE(SCSI_SENSE_KEY_GOOD,
    6b54:	ec e3       	ldi	r30, 0x3C	; 60
    6b56:	f1 e0       	ldi	r31, 0x01	; 1
    6b58:	80 81       	ld	r24, Z
    6b5a:	80 7f       	andi	r24, 0xF0	; 240
    6b5c:	80 83       	st	Z, r24
    6b5e:	ea e3       	ldi	r30, 0x3A	; 58
    6b60:	f1 e0       	ldi	r31, 0x01	; 1
    6b62:	14 86       	std	Z+12, r1	; 0x0c
    6b64:	15 86       	std	Z+13, r1	; 0x0d
		               SCSI_ASENSE_NO_ADDITIONAL_INFORMATION,
		               SCSI_ASENSEQ_NO_QUALIFIER);

		return true;
    6b66:	81 e0       	ldi	r24, 0x01	; 1
    6b68:	03 c0       	rjmp	.+6      	; 0x6b70 <SCSI_DecodeSCSICommand+0x1e6>
	}

	return false;
    6b6a:	80 e0       	ldi	r24, 0x00	; 0
    6b6c:	01 c0       	rjmp	.+2      	; 0x6b70 <SCSI_DecodeSCSICommand+0x1e6>
    6b6e:	80 e0       	ldi	r24, 0x00	; 0
}
    6b70:	df 91       	pop	r29
    6b72:	cf 91       	pop	r28
    6b74:	1f 91       	pop	r17
    6b76:	0f 91       	pop	r16
    6b78:	ff 90       	pop	r15
    6b7a:	ef 90       	pop	r14
    6b7c:	08 95       	ret

00006b7e <VirtualFAT_WriteBlock>:
 *  Storage interface.
 *
 *  \param[in]  BlockNumber  Index of the block to write.
 */
void VirtualFAT_WriteBlock(const uint16_t BlockNumber)  //firmware update
{
    6b7e:	af 92       	push	r10
    6b80:	bf 92       	push	r11
    6b82:	cf 92       	push	r12
    6b84:	df 92       	push	r13
    6b86:	ef 92       	push	r14
    6b88:	ff 92       	push	r15
    6b8a:	0f 93       	push	r16
    6b8c:	1f 93       	push	r17
    6b8e:	cf 93       	push	r28
    6b90:	df 93       	push	r29
    6b92:	cd b7       	in	r28, 0x3d	; 61
    6b94:	de b7       	in	r29, 0x3e	; 62
    6b96:	d2 50       	subi	r29, 0x02	; 2
    6b98:	0f b6       	in	r0, 0x3f	; 63
    6b9a:	f8 94       	cli
    6b9c:	de bf       	out	0x3e, r29	; 62
    6b9e:	0f be       	out	0x3f, r0	; 63
    6ba0:	cd bf       	out	0x3d, r28	; 61
    6ba2:	8c 01       	movw	r16, r24
	uint8_t BlockBuffer[SECTOR_SIZE_BYTES];

	/* Buffer the entire block to be written from the host */
	Endpoint_Read_Stream_LE(BlockBuffer, sizeof(BlockBuffer), NULL);
    6ba4:	40 e0       	ldi	r20, 0x00	; 0
    6ba6:	50 e0       	ldi	r21, 0x00	; 0
    6ba8:	60 e0       	ldi	r22, 0x00	; 0
    6baa:	72 e0       	ldi	r23, 0x02	; 2
    6bac:	ce 01       	movw	r24, r28
    6bae:	01 96       	adiw	r24, 0x01	; 1
    6bb0:	24 d5       	rcall	.+2632   	; 0x75fa <Endpoint_Read_Stream_LE>
			 */
			static inline void Endpoint_ClearOUT(void) ATTR_ALWAYS_INLINE;
			static inline void Endpoint_ClearOUT(void)
			{
				#if !defined(CONTROL_ONLY_DEVICE)
					UEINTX &= ~((1 << RXOUTI) | (1 << FIFOCON));
    6bb2:	e8 ee       	ldi	r30, 0xE8	; 232
    6bb4:	f0 e0       	ldi	r31, 0x00	; 0
    6bb6:	90 81       	ld	r25, Z
    6bb8:	9b 77       	andi	r25, 0x7B	; 123
    6bba:	90 83       	st	Z, r25
	Endpoint_ClearOUT();

	switch (BlockNumber)
    6bbc:	03 30       	cpi	r16, 0x03	; 3
    6bbe:	11 05       	cpc	r17, r1
    6bc0:	08 f4       	brcc	.+2      	; 0x6bc4 <VirtualFAT_WriteBlock+0x46>
    6bc2:	49 c0       	rjmp	.+146    	; 0x6c56 <VirtualFAT_WriteBlock+0xd8>
    6bc4:	03 30       	cpi	r16, 0x03	; 3
    6bc6:	11 05       	cpc	r17, r1
    6bc8:	51 f4       	brne	.+20     	; 0x6bde <VirtualFAT_WriteBlock+0x60>

			break;

		case DISK_BLOCK_RootFilesBlock:
			/* Copy over the updated directory entries */
			memcpy(FirmwareFileEntries, BlockBuffer, sizeof(FirmwareFileEntries));
    6bca:	80 e2       	ldi	r24, 0x20	; 32
    6bcc:	fe 01       	movw	r30, r28
    6bce:	31 96       	adiw	r30, 0x01	; 1
    6bd0:	ac e4       	ldi	r26, 0x4C	; 76
    6bd2:	b1 e0       	ldi	r27, 0x01	; 1
    6bd4:	01 90       	ld	r0, Z+
    6bd6:	0d 92       	st	X+, r0
    6bd8:	8a 95       	dec	r24
    6bda:	e1 f7       	brne	.-8      	; 0x6bd4 <VirtualFAT_WriteBlock+0x56>

			break;
    6bdc:	3c c0       	rjmp	.+120    	; 0x6c56 <VirtualFAT_WriteBlock+0xd8>
	uint16_t FileStartBlock = DISK_BLOCK_DataStartBlock /*+ (*FLASHFileStartCluster - 2)*/ * SECTOR_PER_CLUSTER;
	uint16_t FileEndBlock   = FileStartBlock + (FILE_SECTORS(FLASH_FILE_SIZE_BYTES) - 1);

	/* Range check the write request - abort if requested block is not within the
	 * virtual firmware file sector range */
	if (!((BlockNumber >= FileStartBlock) && (BlockNumber <= FileEndBlock)))
    6bde:	00 51       	subi	r16, 0x10	; 16
    6be0:	11 09       	sbc	r17, r1
    6be2:	04 33       	cpi	r16, 0x34	; 52
    6be4:	11 05       	cpc	r17, r1
    6be6:	b8 f5       	brcc	.+110    	; 0x6c56 <VirtualFAT_WriteBlock+0xd8>
	  return;

	#if (FLASHEND > 0xFFFF)
	uint32_t FlashAddress = (uint32_t)(BlockNumber - FileStartBlock) * SECTOR_SIZE_BYTES;
	#else
	uint16_t FlashAddress = (uint16_t)(BlockNumber - FileStartBlock) * SECTOR_SIZE_BYTES;
    6be8:	10 2f       	mov	r17, r16
    6bea:	00 27       	eor	r16, r16
    6bec:	11 0f       	add	r17, r17
    6bee:	7e 01       	movw	r14, r28
    6bf0:	82 e0       	ldi	r24, 0x02	; 2
    6bf2:	e8 0e       	add	r14, r24
    6bf4:	f1 1c       	adc	r15, r1
    6bf6:	68 01       	movw	r12, r16
    6bf8:	ee ef       	ldi	r30, 0xFE	; 254
    6bfa:	de 1a       	sub	r13, r30
    6bfc:	01 c0       	rjmp	.+2      	; 0x6c00 <VirtualFAT_WriteBlock+0x82>
				BootloaderAPI_ErasePage(FlashAddress);
			}

			/* Write the next data word to the FLASH page */
			BootloaderAPI_FillWord(FlashAddress, (BlockBuffer[i + 1] << 8) | BlockBuffer[i]);
			FlashAddress += 2;
    6bfe:	85 01       	movw	r16, r10
	else
	{
		/* Write out the mapped block of data to the device's FLASH */
		for (uint16_t i = 0; i < SECTOR_SIZE_BYTES; i += 2)
		{
			if ((FlashAddress % SPM_PAGESIZE) == 0)
    6c00:	c8 01       	movw	r24, r16
    6c02:	8f 77       	andi	r24, 0x7F	; 127
    6c04:	99 27       	eor	r25, r25
    6c06:	89 2b       	or	r24, r25
    6c08:	21 f4       	brne	.+8      	; 0x6c12 <VirtualFAT_WriteBlock+0x94>
			{
				/* Erase the given FLASH page, ready to be programmed */
				BootloaderAPI_ErasePage(FlashAddress);
    6c0a:	b8 01       	movw	r22, r16
    6c0c:	80 e0       	ldi	r24, 0x00	; 0
    6c0e:	90 e0       	ldi	r25, 0x00	; 0
    6c10:	8e d2       	rcall	.+1308   	; 0x712e <BootloaderAPI_ErasePage>
    6c12:	f7 01       	movw	r30, r14
    6c14:	31 97       	sbiw	r30, 0x01	; 1
			}

			/* Write the next data word to the FLASH page */
			BootloaderAPI_FillWord(FlashAddress, (BlockBuffer[i + 1] << 8) | BlockBuffer[i]);
    6c16:	40 81       	ld	r20, Z
    6c18:	f7 01       	movw	r30, r14
    6c1a:	80 81       	ld	r24, Z
    6c1c:	50 e0       	ldi	r21, 0x00	; 0
    6c1e:	58 2b       	or	r21, r24
    6c20:	c8 01       	movw	r24, r16
    6c22:	a0 e0       	ldi	r26, 0x00	; 0
    6c24:	b0 e0       	ldi	r27, 0x00	; 0
    6c26:	bc 01       	movw	r22, r24
    6c28:	cd 01       	movw	r24, r26
    6c2a:	a5 d2       	rcall	.+1354   	; 0x7176 <BootloaderAPI_FillWord>
			FlashAddress += 2;
    6c2c:	58 01       	movw	r10, r16
    6c2e:	f2 e0       	ldi	r31, 0x02	; 2
    6c30:	af 0e       	add	r10, r31
    6c32:	b1 1c       	adc	r11, r1

			if ((FlashAddress % SPM_PAGESIZE) == 0)
    6c34:	c5 01       	movw	r24, r10
    6c36:	8f 77       	andi	r24, 0x7F	; 127
    6c38:	99 27       	eor	r25, r25
    6c3a:	89 2b       	or	r24, r25
    6c3c:	31 f4       	brne	.+12     	; 0x6c4a <VirtualFAT_WriteBlock+0xcc>
    6c3e:	b8 01       	movw	r22, r16
    6c40:	6e 57       	subi	r22, 0x7E	; 126
    6c42:	71 09       	sbc	r23, r1
			{
				/* Write the filled FLASH page to memory */
				BootloaderAPI_WritePage(FlashAddress - SPM_PAGESIZE);
    6c44:	80 e0       	ldi	r24, 0x00	; 0
    6c46:	90 e0       	ldi	r25, 0x00	; 0
    6c48:	84 d2       	rcall	.+1288   	; 0x7152 <BootloaderAPI_WritePage>
    6c4a:	82 e0       	ldi	r24, 0x02	; 2
    6c4c:	e8 0e       	add	r14, r24
    6c4e:	f1 1c       	adc	r15, r1
		}
	}
	else
	{
		/* Write out the mapped block of data to the device's FLASH */
		for (uint16_t i = 0; i < SECTOR_SIZE_BYTES; i += 2)
    6c50:	ac 14       	cp	r10, r12
    6c52:	bd 04       	cpc	r11, r13
    6c54:	a1 f6       	brne	.-88     	; 0x6bfe <VirtualFAT_WriteBlock+0x80>
		default:
			ReadWriteFLASHFileBlock(BlockNumber, BlockBuffer, false);

			break;
	}
}
    6c56:	de 5f       	subi	r29, 0xFE	; 254
    6c58:	0f b6       	in	r0, 0x3f	; 63
    6c5a:	f8 94       	cli
    6c5c:	de bf       	out	0x3e, r29	; 62
    6c5e:	0f be       	out	0x3f, r0	; 63
    6c60:	cd bf       	out	0x3d, r28	; 61
    6c62:	df 91       	pop	r29
    6c64:	cf 91       	pop	r28
    6c66:	1f 91       	pop	r17
    6c68:	0f 91       	pop	r16
    6c6a:	ff 90       	pop	r15
    6c6c:	ef 90       	pop	r14
    6c6e:	df 90       	pop	r13
    6c70:	cf 90       	pop	r12
    6c72:	bf 90       	pop	r11
    6c74:	af 90       	pop	r10
    6c76:	08 95       	ret

00006c78 <VirtualFAT_ReadBlock>:
 *  host via the USB Mass Storage interface.
 *
 *  \param[in]  BlockNumber  Index of the block to read.
 */
void VirtualFAT_ReadBlock(const uint16_t BlockNumber)   //read files
{
    6c78:	cf 93       	push	r28
    6c7a:	df 93       	push	r29
    6c7c:	cd b7       	in	r28, 0x3d	; 61
    6c7e:	de b7       	in	r29, 0x3e	; 62
    6c80:	d2 50       	subi	r29, 0x02	; 2
    6c82:	0f b6       	in	r0, 0x3f	; 63
    6c84:	f8 94       	cli
    6c86:	de bf       	out	0x3e, r29	; 62
    6c88:	0f be       	out	0x3f, r0	; 63
    6c8a:	cd bf       	out	0x3d, r28	; 61
	uint8_t BlockBuffer[SECTOR_SIZE_BYTES];
	memset(BlockBuffer, 0x00, sizeof(BlockBuffer));
    6c8c:	fe 01       	movw	r30, r28
    6c8e:	31 96       	adiw	r30, 0x01	; 1
    6c90:	20 e0       	ldi	r18, 0x00	; 0
    6c92:	32 e0       	ldi	r19, 0x02	; 2
    6c94:	df 01       	movw	r26, r30
    6c96:	a9 01       	movw	r20, r18
    6c98:	1d 92       	st	X+, r1
    6c9a:	41 50       	subi	r20, 0x01	; 1
    6c9c:	50 40       	sbci	r21, 0x00	; 0
    6c9e:	e1 f7       	brne	.-8      	; 0x6c98 <VirtualFAT_ReadBlock+0x20>

	switch (BlockNumber)
    6ca0:	83 30       	cpi	r24, 0x03	; 3
    6ca2:	91 05       	cpc	r25, r1
    6ca4:	18 f4       	brcc	.+6      	; 0x6cac <VirtualFAT_ReadBlock+0x34>
    6ca6:	01 97       	sbiw	r24, 0x01	; 1
    6ca8:	20 f0       	brcs	.+8      	; 0x6cb2 <VirtualFAT_ReadBlock+0x3a>
    6caa:	19 c0       	rjmp	.+50     	; 0x6cde <VirtualFAT_ReadBlock+0x66>
    6cac:	03 97       	sbiw	r24, 0x03	; 3
    6cae:	e9 f0       	breq	.+58     	; 0x6cea <VirtualFAT_ReadBlock+0x72>
    6cb0:	25 c0       	rjmp	.+74     	; 0x6cfc <VirtualFAT_ReadBlock+0x84>
	{
		case DISK_BLOCK_BootBlock:
			memcpy(BlockBuffer, &BootBlock, sizeof(FATBootBlock_t));
    6cb2:	8e e3       	ldi	r24, 0x3E	; 62
    6cb4:	e2 ec       	ldi	r30, 0xC2	; 194
    6cb6:	f1 e0       	ldi	r31, 0x01	; 1
    6cb8:	de 01       	movw	r26, r28
    6cba:	11 96       	adiw	r26, 0x01	; 1
    6cbc:	01 90       	ld	r0, Z+
    6cbe:	0d 92       	st	X+, r0
    6cc0:	8a 95       	dec	r24
    6cc2:	e1 f7       	brne	.-8      	; 0x6cbc <VirtualFAT_ReadBlock+0x44>

			/* Add the magic signature to the end of the block */
			BlockBuffer[SECTOR_SIZE_BYTES - 2] = 0x55;
    6cc4:	85 e5       	ldi	r24, 0x55	; 85
    6cc6:	c1 50       	subi	r28, 0x01	; 1
    6cc8:	de 4f       	sbci	r29, 0xFE	; 254
    6cca:	88 83       	st	Y, r24
    6ccc:	cf 5f       	subi	r28, 0xFF	; 255
    6cce:	d1 40       	sbci	r29, 0x01	; 1
			BlockBuffer[SECTOR_SIZE_BYTES - 1] = 0xAA;
    6cd0:	8a ea       	ldi	r24, 0xAA	; 170
    6cd2:	c0 50       	subi	r28, 0x00	; 0
    6cd4:	de 4f       	sbci	r29, 0xFE	; 254
    6cd6:	88 83       	st	Y, r24
    6cd8:	c0 50       	subi	r28, 0x00	; 0
    6cda:	d2 40       	sbci	r29, 0x02	; 2

			break;
    6cdc:	0f c0       	rjmp	.+30     	; 0x6cfc <VirtualFAT_ReadBlock+0x84>
		FATTable[FATOffset]     = (FATTable[FATOffset] & 0x0F) | ((ChainEntry & 0x0F) << 4);
		FATTable[FATOffset + 1] = (ChainEntry >> 4);
	}
	else
	{
		FATTable[FATOffset]     = ChainEntry;
    6cde:	88 ef       	ldi	r24, 0xF8	; 248
    6ce0:	89 83       	std	Y+1, r24	; 0x01
		FATTable[FATOffset + 1] = (FATTable[FATOffset] & 0xF0) | (ChainEntry >> 8);
    6ce2:	8f ef       	ldi	r24, 0xFF	; 255
    6ce4:	8a 83       	std	Y+2, r24	; 0x02
	/* Check if the start of the entry is at an upper nibble of the byte, fill
	 * out FAT12 entry as required */
	if (UpperNibble)
	{
		FATTable[FATOffset]     = (FATTable[FATOffset] & 0x0F) | ((ChainEntry & 0x0F) << 4);
		FATTable[FATOffset + 1] = (ChainEntry >> 4);
    6ce6:	8b 83       	std	Y+3, r24	; 0x03
    6ce8:	09 c0       	rjmp	.+18     	; 0x6cfc <VirtualFAT_ReadBlock+0x84>
			UpdateFAT12ClusterEntry(BlockBuffer, 1, 0xFFF);

			break;

		case DISK_BLOCK_RootFilesBlock:
			memcpy(BlockBuffer, FirmwareFileEntries, sizeof(FirmwareFileEntries));
    6cea:	80 e2       	ldi	r24, 0x20	; 32
    6cec:	ec e4       	ldi	r30, 0x4C	; 76
    6cee:	f1 e0       	ldi	r31, 0x01	; 1
    6cf0:	de 01       	movw	r26, r28
    6cf2:	11 96       	adiw	r26, 0x01	; 1
    6cf4:	01 90       	ld	r0, Z+
    6cf6:	0d 92       	st	X+, r0
    6cf8:	8a 95       	dec	r24
    6cfa:	e1 f7       	brne	.-8      	; 0x6cf4 <VirtualFAT_ReadBlock+0x7c>
		default:
			break;
	}

	/* Write the entire read block Buffer to the host */
	Endpoint_Write_Stream_LE(BlockBuffer, sizeof(BlockBuffer), NULL);
    6cfc:	40 e0       	ldi	r20, 0x00	; 0
    6cfe:	50 e0       	ldi	r21, 0x00	; 0
    6d00:	60 e0       	ldi	r22, 0x00	; 0
    6d02:	72 e0       	ldi	r23, 0x02	; 2
    6d04:	ce 01       	movw	r24, r28
    6d06:	01 96       	adiw	r24, 0x01	; 1
    6d08:	1c d4       	rcall	.+2104   	; 0x7542 <Endpoint_Write_Stream_LE>
			 */
			static inline void Endpoint_ClearIN(void) ATTR_ALWAYS_INLINE;
			static inline void Endpoint_ClearIN(void)
			{
				#if !defined(CONTROL_ONLY_DEVICE)
					UEINTX &= ~((1 << TXINI) | (1 << FIFOCON));
    6d0a:	e8 ee       	ldi	r30, 0xE8	; 232
    6d0c:	f0 e0       	ldi	r31, 0x00	; 0
    6d0e:	80 81       	ld	r24, Z
    6d10:	8e 77       	andi	r24, 0x7E	; 126
    6d12:	80 83       	st	Z, r24
	Endpoint_ClearIN();
}
    6d14:	de 5f       	subi	r29, 0xFE	; 254
    6d16:	0f b6       	in	r0, 0x3f	; 63
    6d18:	f8 94       	cli
    6d1a:	de bf       	out	0x3e, r29	; 62
    6d1c:	0f be       	out	0x3f, r0	; 63
    6d1e:	cd bf       	out	0x3d, r28	; 61
    6d20:	df 91       	pop	r29
    6d22:	cf 91       	pop	r28
    6d24:	08 95       	ret

Disassembly of section .boot_aux_trampoline:

00006800 <Boot_AUX_Trampoline>:
; Trampoline to jump over the AUX bootloader section to the start of the bootloader,
; on devices where an AUX bootloader section is used.
.section .boot_aux_trampoline, "ax"
.global Boot_AUX_Trampoline
Boot_AUX_Trampoline:
	jmp BOOT_START_ADDR
    6800:	0c 94 00 38 	jmp	0x7000	; 0x7000 <__vectors>

Disassembly of section .text:

00007000 <__vectors>:
    7000:	55 c0       	rjmp	.+170    	; 0x70ac <__ctors_end>
    7002:	00 00       	nop
    7004:	93 c0       	rjmp	.+294    	; 0x712c <__bad_interrupt>
    7006:	00 00       	nop
    7008:	91 c0       	rjmp	.+290    	; 0x712c <__bad_interrupt>
    700a:	00 00       	nop
    700c:	8f c0       	rjmp	.+286    	; 0x712c <__bad_interrupt>
    700e:	00 00       	nop
    7010:	8d c0       	rjmp	.+282    	; 0x712c <__bad_interrupt>
    7012:	00 00       	nop
    7014:	8b c0       	rjmp	.+278    	; 0x712c <__bad_interrupt>
    7016:	00 00       	nop
    7018:	89 c0       	rjmp	.+274    	; 0x712c <__bad_interrupt>
    701a:	00 00       	nop
    701c:	87 c0       	rjmp	.+270    	; 0x712c <__bad_interrupt>
    701e:	00 00       	nop
    7020:	85 c0       	rjmp	.+266    	; 0x712c <__bad_interrupt>
    7022:	00 00       	nop
    7024:	83 c0       	rjmp	.+262    	; 0x712c <__bad_interrupt>
    7026:	00 00       	nop
    7028:	fb c4       	rjmp	.+2550   	; 0x7a20 <__vector_10>
    702a:	00 00       	nop
    702c:	ac c5       	rjmp	.+2904   	; 0x7b86 <__vector_11>
    702e:	00 00       	nop
    7030:	7d c0       	rjmp	.+250    	; 0x712c <__bad_interrupt>
    7032:	00 00       	nop
    7034:	7b c0       	rjmp	.+246    	; 0x712c <__bad_interrupt>
    7036:	00 00       	nop
    7038:	79 c0       	rjmp	.+242    	; 0x712c <__bad_interrupt>
    703a:	00 00       	nop
    703c:	77 c0       	rjmp	.+238    	; 0x712c <__bad_interrupt>
    703e:	00 00       	nop
    7040:	75 c0       	rjmp	.+234    	; 0x712c <__bad_interrupt>
    7042:	00 00       	nop
    7044:	73 c0       	rjmp	.+230    	; 0x712c <__bad_interrupt>
    7046:	00 00       	nop
    7048:	71 c0       	rjmp	.+226    	; 0x712c <__bad_interrupt>
    704a:	00 00       	nop
    704c:	6f c0       	rjmp	.+222    	; 0x712c <__bad_interrupt>
    704e:	00 00       	nop
    7050:	6d c0       	rjmp	.+218    	; 0x712c <__bad_interrupt>
    7052:	00 00       	nop
    7054:	6b c0       	rjmp	.+214    	; 0x712c <__bad_interrupt>
    7056:	00 00       	nop
    7058:	69 c0       	rjmp	.+210    	; 0x712c <__bad_interrupt>
    705a:	00 00       	nop
    705c:	67 c0       	rjmp	.+206    	; 0x712c <__bad_interrupt>
    705e:	00 00       	nop
    7060:	65 c0       	rjmp	.+202    	; 0x712c <__bad_interrupt>
    7062:	00 00       	nop
    7064:	63 c0       	rjmp	.+198    	; 0x712c <__bad_interrupt>
    7066:	00 00       	nop
    7068:	61 c0       	rjmp	.+194    	; 0x712c <__bad_interrupt>
    706a:	00 00       	nop
    706c:	5f c0       	rjmp	.+190    	; 0x712c <__bad_interrupt>
    706e:	00 00       	nop
    7070:	5d c0       	rjmp	.+186    	; 0x712c <__bad_interrupt>
    7072:	00 00       	nop
    7074:	5b c0       	rjmp	.+182    	; 0x712c <__bad_interrupt>
    7076:	00 00       	nop
    7078:	59 c0       	rjmp	.+178    	; 0x712c <__bad_interrupt>
    707a:	00 00       	nop
    707c:	57 c0       	rjmp	.+174    	; 0x712c <__bad_interrupt>
    707e:	00 00       	nop
    7080:	55 c0       	rjmp	.+170    	; 0x712c <__bad_interrupt>
    7082:	00 00       	nop
    7084:	53 c0       	rjmp	.+166    	; 0x712c <__bad_interrupt>
    7086:	00 00       	nop
    7088:	51 c0       	rjmp	.+162    	; 0x712c <__bad_interrupt>
    708a:	00 00       	nop
    708c:	4f c0       	rjmp	.+158    	; 0x712c <__bad_interrupt>
    708e:	00 00       	nop
    7090:	4d c0       	rjmp	.+154    	; 0x712c <__bad_interrupt>
    7092:	00 00       	nop
    7094:	4b c0       	rjmp	.+150    	; 0x712c <__bad_interrupt>
    7096:	00 00       	nop
    7098:	49 c0       	rjmp	.+146    	; 0x712c <__bad_interrupt>
    709a:	00 00       	nop
    709c:	47 c0       	rjmp	.+142    	; 0x712c <__bad_interrupt>
    709e:	00 00       	nop
    70a0:	45 c0       	rjmp	.+138    	; 0x712c <__bad_interrupt>
    70a2:	00 00       	nop
    70a4:	43 c0       	rjmp	.+134    	; 0x712c <__bad_interrupt>
    70a6:	00 00       	nop
    70a8:	41 c0       	rjmp	.+130    	; 0x712c <__bad_interrupt>
	...

000070ac <__ctors_end>:
    70ac:	11 24       	eor	r1, r1
    70ae:	1f be       	out	0x3f, r1	; 63
    70b0:	cf ef       	ldi	r28, 0xFF	; 255
    70b2:	da e0       	ldi	r29, 0x0A	; 10
    70b4:	de bf       	out	0x3e, r29	; 62
    70b6:	cd bf       	out	0x3d, r28	; 61

000070b8 <Application_Jump_Check>:
void Application_Jump_Check(void)
{
    bool JumpToApplication = false;

    //make sure bootloader button is configured as input
    setInputMacro(BTLDR_BUTTON_DDR, BTLDR_BUTTON_PIN_INDEX);
    70b8:	6a 98       	cbi	0x0d, 2	; 13

    //a bit of cheating - HWBE fuse is unprogrammed, however, we are using HWB pin to
    //detect whether we should run bootloader or not
    //check if buton on HWB pin is released
    if (!((BTLDR_BUTTON_PIN_REGISTER >> BTLDR_BUTTON_PIN_INDEX) & 0x01))  {
    70ba:	8c b1       	in	r24, 0x0c	; 12
    70bc:	82 fb       	bst	r24, 2
    70be:	88 27       	eor	r24, r24
    70c0:	80 f9       	bld	r24, 0
        JumpToApplication = true;

    }

    /* Clear external reset source if source is external*/
    if (!(MCUSR & (1 << EXTRF)))
    70c2:	04 b6       	in	r0, 0x34	; 52
    70c4:	01 fc       	sbrc	r0, 1
    70c6:	03 c0       	rjmp	.+6      	; 0x70ce <Application_Jump_Check+0x16>
    MCUSR &= ~(1 << EXTRF);
    70c8:	94 b7       	in	r25, 0x34	; 52
    70ca:	9d 7f       	andi	r25, 0xFD	; 253
    70cc:	94 bf       	out	0x34, r25	; 52

    /* Don't run the user application if the reset vector is blank (no app loaded) */
    bool ApplicationValid = (pgm_read_word_near(0) != 0xFFFF);
    70ce:	e0 e0       	ldi	r30, 0x00	; 0
    70d0:	f0 e0       	ldi	r31, 0x00	; 0
    70d2:	25 91       	lpm	r18, Z+
    70d4:	34 91       	lpm	r19, Z

    /* If a request has been made to jump to the user application, honor it */
    if (JumpToApplication && ApplicationValid)
    70d6:	81 11       	cpse	r24, r1
    70d8:	14 c0       	rjmp	.+40     	; 0x7102 <__do_copy_data>
    70da:	2f 3f       	cpi	r18, 0xFF	; 255
    70dc:	3f 4f       	sbci	r19, 0xFF	; 255
    70de:	89 f0       	breq	.+34     	; 0x7102 <__do_copy_data>
    {
        /* Turn off the watchdog */
        MCUSR &= ~(1 << WDRF);
    70e0:	84 b7       	in	r24, 0x34	; 52
    70e2:	87 7f       	andi	r24, 0xF7	; 247
    70e4:	84 bf       	out	0x34, r24	; 52
		);
	}
	else
	{
        uint8_t register temp_reg;
		__asm__ __volatile__ (
    70e6:	0f b6       	in	r0, 0x3f	; 63
    70e8:	f8 94       	cli
    70ea:	a8 95       	wdr
    70ec:	80 91 60 00 	lds	r24, 0x0060
    70f0:	88 61       	ori	r24, 0x18	; 24
    70f2:	80 93 60 00 	sts	0x0060, r24
    70f6:	10 92 60 00 	sts	0x0060, r1
    70fa:	0f be       	out	0x3f, r0	; 63
        wdt_disable();

        // cppcheck-suppress constStatement
        ((void (*)(void))0x0000)();
    70fc:	e0 e0       	ldi	r30, 0x00	; 0
    70fe:	f0 e0       	ldi	r31, 0x00	; 0
    7100:	09 95       	icall

00007102 <__do_copy_data>:
    7102:	12 e0       	ldi	r17, 0x02	; 2
    7104:	a0 e0       	ldi	r26, 0x00	; 0
    7106:	b1 e0       	ldi	r27, 0x01	; 1
    7108:	ea e8       	ldi	r30, 0x8A	; 138
    710a:	fe e7       	ldi	r31, 0x7E	; 126
    710c:	02 c0       	rjmp	.+4      	; 0x7112 <__do_copy_data+0x10>
    710e:	05 90       	lpm	r0, Z+
    7110:	0d 92       	st	X+, r0
    7112:	a0 30       	cpi	r26, 0x00	; 0
    7114:	b1 07       	cpc	r27, r17
    7116:	d9 f7       	brne	.-10     	; 0x710e <__do_copy_data+0xc>

00007118 <__do_clear_bss>:
    7118:	22 e0       	ldi	r18, 0x02	; 2
    711a:	a0 e0       	ldi	r26, 0x00	; 0
    711c:	b2 e0       	ldi	r27, 0x02	; 2
    711e:	01 c0       	rjmp	.+2      	; 0x7122 <.do_clear_bss_start>

00007120 <.do_clear_bss_loop>:
    7120:	1d 92       	st	X+, r1

00007122 <.do_clear_bss_start>:
    7122:	ab 30       	cpi	r26, 0x0B	; 11
    7124:	b2 07       	cpc	r27, r18
    7126:	e1 f7       	brne	.-8      	; 0x7120 <.do_clear_bss_loop>
    7128:	73 db       	rcall	.-2330   	; 0x6810 <main>
    712a:	ad c6       	rjmp	.+3418   	; 0x7e86 <_exit>

0000712c <__bad_interrupt>:
    712c:	69 cf       	rjmp	.-302    	; 0x7000 <__vectors>

0000712e <BootloaderAPI_ErasePage>:

#include "BootloaderAPI.h"

void BootloaderAPI_ErasePage(const uint32_t Address)
{
	boot_page_erase_safe(Address);
    712e:	07 b6       	in	r0, 0x37	; 55
    7130:	00 fc       	sbrc	r0, 0
    7132:	fd cf       	rjmp	.-6      	; 0x712e <BootloaderAPI_ErasePage>
    7134:	f9 99       	sbic	0x1f, 1	; 31
    7136:	fe cf       	rjmp	.-4      	; 0x7134 <BootloaderAPI_ErasePage+0x6>
    7138:	23 e0       	ldi	r18, 0x03	; 3
    713a:	fb 01       	movw	r30, r22
    713c:	20 93 57 00 	sts	0x0057, r18
    7140:	e8 95       	spm
	boot_spm_busy_wait();
    7142:	07 b6       	in	r0, 0x37	; 55
    7144:	00 fc       	sbrc	r0, 0
    7146:	fd cf       	rjmp	.-6      	; 0x7142 <BootloaderAPI_ErasePage+0x14>
	boot_rww_enable();
    7148:	81 e1       	ldi	r24, 0x11	; 17
    714a:	80 93 57 00 	sts	0x0057, r24
    714e:	e8 95       	spm
    7150:	08 95       	ret

00007152 <BootloaderAPI_WritePage>:
}

void BootloaderAPI_WritePage(const uint32_t Address)
{
	boot_page_write_safe(Address);
    7152:	07 b6       	in	r0, 0x37	; 55
    7154:	00 fc       	sbrc	r0, 0
    7156:	fd cf       	rjmp	.-6      	; 0x7152 <BootloaderAPI_WritePage>
    7158:	f9 99       	sbic	0x1f, 1	; 31
    715a:	fe cf       	rjmp	.-4      	; 0x7158 <BootloaderAPI_WritePage+0x6>
    715c:	25 e0       	ldi	r18, 0x05	; 5
    715e:	fb 01       	movw	r30, r22
    7160:	20 93 57 00 	sts	0x0057, r18
    7164:	e8 95       	spm
	boot_spm_busy_wait();
    7166:	07 b6       	in	r0, 0x37	; 55
    7168:	00 fc       	sbrc	r0, 0
    716a:	fd cf       	rjmp	.-6      	; 0x7166 <BootloaderAPI_WritePage+0x14>
	boot_rww_enable();
    716c:	81 e1       	ldi	r24, 0x11	; 17
    716e:	80 93 57 00 	sts	0x0057, r24
    7172:	e8 95       	spm
    7174:	08 95       	ret

00007176 <BootloaderAPI_FillWord>:
}

void BootloaderAPI_FillWord(const uint32_t Address, const uint16_t Word)
{
	boot_page_fill_safe(Address, Word);
    7176:	07 b6       	in	r0, 0x37	; 55
    7178:	00 fc       	sbrc	r0, 0
    717a:	fd cf       	rjmp	.-6      	; 0x7176 <BootloaderAPI_FillWord>
    717c:	f9 99       	sbic	0x1f, 1	; 31
    717e:	fe cf       	rjmp	.-4      	; 0x717c <BootloaderAPI_FillWord+0x6>
    7180:	21 e0       	ldi	r18, 0x01	; 1
    7182:	fb 01       	movw	r30, r22
    7184:	0a 01       	movw	r0, r20
    7186:	20 93 57 00 	sts	0x0057, r18
    718a:	e8 95       	spm
    718c:	11 24       	eor	r1, r1
    718e:	08 95       	ret

00007190 <MS_Device_ProcessControlRequest>:
#define  __INCLUDE_FROM_MS_DRIVER
#define  __INCLUDE_FROM_MASSSTORAGE_DEVICE_C
#include "MassStorageClassDevice.h"

void MS_Device_ProcessControlRequest(USB_ClassInfo_MS_Device_t* const MSInterfaceInfo)
{
    7190:	cf 93       	push	r28
    7192:	df 93       	push	r29
    7194:	fc 01       	movw	r30, r24
			 *  \return Boolean \c true if the selected endpoint has received a SETUP packet, \c false otherwise.
			 */
			static inline bool Endpoint_IsSETUPReceived(void) ATTR_WARN_UNUSED_RESULT ATTR_ALWAYS_INLINE;
			static inline bool Endpoint_IsSETUPReceived(void)
			{
				return ((UEINTX & (1 << RXSTPI)) ? true : false);
    7196:	90 91 e8 00 	lds	r25, 0x00E8
	if (!(Endpoint_IsSETUPReceived()))
    719a:	93 ff       	sbrs	r25, 3
    719c:	33 c0       	rjmp	.+102    	; 0x7204 <MS_Device_ProcessControlRequest+0x74>
	  return;

	if (USB_ControlRequest.wIndex != MSInterfaceInfo->Config.InterfaceNumber)
    719e:	20 81       	ld	r18, Z
    71a0:	30 e0       	ldi	r19, 0x00	; 0
    71a2:	80 91 07 02 	lds	r24, 0x0207
    71a6:	90 91 08 02 	lds	r25, 0x0208
    71aa:	82 17       	cp	r24, r18
    71ac:	93 07       	cpc	r25, r19
    71ae:	51 f5       	brne	.+84     	; 0x7204 <MS_Device_ProcessControlRequest+0x74>
    71b0:	ef 01       	movw	r28, r30
	  return;

	switch (USB_ControlRequest.bRequest)
    71b2:	80 91 04 02 	lds	r24, 0x0204
    71b6:	8e 3f       	cpi	r24, 0xFE	; 254
    71b8:	79 f0       	breq	.+30     	; 0x71d8 <MS_Device_ProcessControlRequest+0x48>
    71ba:	8f 3f       	cpi	r24, 0xFF	; 255
    71bc:	19 f5       	brne	.+70     	; 0x7204 <MS_Device_ProcessControlRequest+0x74>
	{
		case MS_REQ_MassStorageReset:
			if (USB_ControlRequest.bmRequestType == (REQDIR_HOSTTODEVICE | REQTYPE_CLASS | REQREC_INTERFACE))
    71be:	80 91 03 02 	lds	r24, 0x0203
    71c2:	81 32       	cpi	r24, 0x21	; 33
    71c4:	f9 f4       	brne	.+62     	; 0x7204 <MS_Device_ProcessControlRequest+0x74>
			 *  \note This is not applicable for non CONTROL type endpoints.
			 */
			static inline void Endpoint_ClearSETUP(void) ATTR_ALWAYS_INLINE;
			static inline void Endpoint_ClearSETUP(void)
			{
				UEINTX &= ~(1 << RXSTPI);
    71c6:	e8 ee       	ldi	r30, 0xE8	; 232
    71c8:	f0 e0       	ldi	r31, 0x00	; 0
    71ca:	80 81       	ld	r24, Z
    71cc:	87 7f       	andi	r24, 0xF7	; 247
    71ce:	80 83       	st	Z, r24
			{
				Endpoint_ClearSETUP();
				Endpoint_ClearStatusStage();
    71d0:	6c d3       	rcall	.+1752   	; 0x78aa <Endpoint_ClearStatusStage>

				MSInterfaceInfo->State.IsMassStoreReset = true;
    71d2:	81 e0       	ldi	r24, 0x01	; 1
    71d4:	88 af       	std	Y+56, r24	; 0x38
    71d6:	16 c0       	rjmp	.+44     	; 0x7204 <MS_Device_ProcessControlRequest+0x74>
			}

			break;
		case MS_REQ_GetMaxLUN:
			if (USB_ControlRequest.bmRequestType == (REQDIR_DEVICETOHOST | REQTYPE_CLASS | REQREC_INTERFACE))
    71d8:	80 91 03 02 	lds	r24, 0x0203
    71dc:	81 3a       	cpi	r24, 0xA1	; 161
    71de:	91 f4       	brne	.+36     	; 0x7204 <MS_Device_ProcessControlRequest+0x74>
    71e0:	e8 ee       	ldi	r30, 0xE8	; 232
    71e2:	f0 e0       	ldi	r31, 0x00	; 0
    71e4:	80 81       	ld	r24, Z
    71e6:	87 7f       	andi	r24, 0xF7	; 247
    71e8:	80 83       	st	Z, r24
			 *  \return Boolean \c true if the current endpoint is ready for an IN packet, \c false otherwise.
			 */
			static inline bool Endpoint_IsINReady(void) ATTR_WARN_UNUSED_RESULT ATTR_ALWAYS_INLINE;
			static inline bool Endpoint_IsINReady(void)
			{
				return ((UEINTX & (1 << TXINI)) ? true : false);
    71ea:	80 81       	ld	r24, Z
			{
				Endpoint_ClearSETUP();
				while (!(Endpoint_IsINReady()));
    71ec:	80 ff       	sbrs	r24, 0
    71ee:	fd cf       	rjmp	.-6      	; 0x71ea <MS_Device_ProcessControlRequest+0x5a>
				Endpoint_Write_8(MSInterfaceInfo->Config.TotalLUNs - 1);
    71f0:	8b 85       	ldd	r24, Y+11	; 0x0b
    71f2:	81 50       	subi	r24, 0x01	; 1
			 *  \param[in] Data  Data to write into the the currently selected endpoint's FIFO buffer.
			 */
			static inline void Endpoint_Write_8(const uint8_t Data) ATTR_ALWAYS_INLINE;
			static inline void Endpoint_Write_8(const uint8_t Data)
			{
				UEDATX = Data;
    71f4:	80 93 f1 00 	sts	0x00F1, r24
			 */
			static inline void Endpoint_ClearIN(void) ATTR_ALWAYS_INLINE;
			static inline void Endpoint_ClearIN(void)
			{
				#if !defined(CONTROL_ONLY_DEVICE)
					UEINTX &= ~((1 << TXINI) | (1 << FIFOCON));
    71f8:	e8 ee       	ldi	r30, 0xE8	; 232
    71fa:	f0 e0       	ldi	r31, 0x00	; 0
    71fc:	80 81       	ld	r24, Z
    71fe:	8e 77       	andi	r24, 0x7E	; 126
    7200:	80 83       	st	Z, r24
				Endpoint_ClearIN();
				Endpoint_ClearStatusStage();
    7202:	53 d3       	rcall	.+1702   	; 0x78aa <Endpoint_ClearStatusStage>
			}

			break;
	}
}
    7204:	df 91       	pop	r29
    7206:	cf 91       	pop	r28
    7208:	08 95       	ret

0000720a <MS_Device_ConfigureEndpoints>:

bool MS_Device_ConfigureEndpoints(USB_ClassInfo_MS_Device_t* const MSInterfaceInfo)
{
    720a:	cf 93       	push	r28
    720c:	df 93       	push	r29
    720e:	ec 01       	movw	r28, r24
	memset(&MSInterfaceInfo->State, 0x00, sizeof(MSInterfaceInfo->State));
    7210:	fc 01       	movw	r30, r24
    7212:	3c 96       	adiw	r30, 0x0c	; 12
    7214:	8d e2       	ldi	r24, 0x2D	; 45
    7216:	df 01       	movw	r26, r30
    7218:	1d 92       	st	X+, r1
    721a:	8a 95       	dec	r24
    721c:	e9 f7       	brne	.-6      	; 0x7218 <MS_Device_ConfigureEndpoints+0xe>

	MSInterfaceInfo->Config.DataINEndpoint.Type  = EP_TYPE_BULK;
    721e:	82 e0       	ldi	r24, 0x02	; 2
    7220:	8c 83       	std	Y+4, r24	; 0x04
	MSInterfaceInfo->Config.DataOUTEndpoint.Type = EP_TYPE_BULK;
    7222:	89 87       	std	Y+9, r24	; 0x09

	if (!(Endpoint_ConfigureEndpointTable(&MSInterfaceInfo->Config.DataINEndpoint, 1)))
    7224:	61 e0       	ldi	r22, 0x01	; 1
    7226:	ce 01       	movw	r24, r28
    7228:	01 96       	adiw	r24, 0x01	; 1
    722a:	d9 d2       	rcall	.+1458   	; 0x77de <Endpoint_ConfigureEndpointTable>
    722c:	88 23       	and	r24, r24
    722e:	21 f0       	breq	.+8      	; 0x7238 <MS_Device_ConfigureEndpoints+0x2e>
	  return false;

	if (!(Endpoint_ConfigureEndpointTable(&MSInterfaceInfo->Config.DataOUTEndpoint, 1)))
    7230:	61 e0       	ldi	r22, 0x01	; 1
    7232:	ce 01       	movw	r24, r28
    7234:	06 96       	adiw	r24, 0x06	; 6
    7236:	d3 d2       	rcall	.+1446   	; 0x77de <Endpoint_ConfigureEndpointTable>
	  return false;

	return true;
}
    7238:	df 91       	pop	r29
    723a:	cf 91       	pop	r28
    723c:	08 95       	ret

0000723e <MS_Device_USBTask>:

void MS_Device_USBTask(USB_ClassInfo_MS_Device_t* const MSInterfaceInfo)
{
    723e:	ef 92       	push	r14
    7240:	ff 92       	push	r15
    7242:	0f 93       	push	r16
    7244:	1f 93       	push	r17
    7246:	cf 93       	push	r28
    7248:	df 93       	push	r29
    724a:	00 d0       	rcall	.+0      	; 0x724c <MS_Device_USBTask+0xe>
    724c:	cd b7       	in	r28, 0x3d	; 61
    724e:	de b7       	in	r29, 0x3e	; 62
    7250:	8c 01       	movw	r16, r24
	if (USB_DeviceState != DEVICE_STATE_Configured)
    7252:	9e b3       	in	r25, 0x1e	; 30
    7254:	94 30       	cpi	r25, 0x04	; 4
    7256:	09 f0       	breq	.+2      	; 0x725a <MS_Device_USBTask+0x1c>
    7258:	1c c1       	rjmp	.+568    	; 0x7492 <MS_Device_USBTask+0x254>
			 */
			static inline void Endpoint_SelectEndpoint(const uint8_t Address) ATTR_ALWAYS_INLINE;
			static inline void Endpoint_SelectEndpoint(const uint8_t Address)
			{
				#if !defined(CONTROL_ONLY_DEVICE)
					UENUM = (Address & ENDPOINT_EPNUM_MASK);
    725a:	d8 01       	movw	r26, r16
    725c:	16 96       	adiw	r26, 0x06	; 6
    725e:	8c 91       	ld	r24, X
    7260:	16 97       	sbiw	r26, 0x06	; 6
    7262:	8f 70       	andi	r24, 0x0F	; 15
    7264:	80 93 e9 00 	sts	0x00E9, r24
			 *  \return Boolean \c true if current endpoint is has received an OUT packet, \c false otherwise.
			 */
			static inline bool Endpoint_IsOUTReceived(void) ATTR_WARN_UNUSED_RESULT ATTR_ALWAYS_INLINE;
			static inline bool Endpoint_IsOUTReceived(void)
			{
				return ((UEINTX & (1 << RXOUTI)) ? true : false);
    7268:	80 91 e8 00 	lds	r24, 0x00E8
	  return;

	Endpoint_SelectEndpoint(MSInterfaceInfo->Config.DataOUTEndpoint.Address);

	if (Endpoint_IsOUTReceived())
    726c:	82 ff       	sbrs	r24, 2
    726e:	d2 c0       	rjmp	.+420    	; 0x7414 <MS_Device_USBTask+0x1d6>
			 */
			static inline void Endpoint_SelectEndpoint(const uint8_t Address) ATTR_ALWAYS_INLINE;
			static inline void Endpoint_SelectEndpoint(const uint8_t Address)
			{
				#if !defined(CONTROL_ONLY_DEVICE)
					UENUM = (Address & ENDPOINT_EPNUM_MASK);
    7270:	16 96       	adiw	r26, 0x06	; 6
    7272:	8c 91       	ld	r24, X
    7274:	8f 70       	andi	r24, 0x0F	; 15
    7276:	80 93 e9 00 	sts	0x00E9, r24
{
	uint16_t BytesProcessed;

	Endpoint_SelectEndpoint(MSInterfaceInfo->Config.DataOUTEndpoint.Address);

	BytesProcessed = 0;
    727a:	1a 82       	std	Y+2, r1	; 0x02
    727c:	19 82       	std	Y+1, r1	; 0x01
	while (Endpoint_Read_Stream_LE(&MSInterfaceInfo->State.CommandBlock,
    727e:	78 01       	movw	r14, r16
    7280:	bc e0       	ldi	r27, 0x0C	; 12
    7282:	eb 0e       	add	r14, r27
    7284:	f1 1c       	adc	r15, r1
    7286:	04 c0       	rjmp	.+8      	; 0x7290 <MS_Device_USBTask+0x52>
	                               (sizeof(MS_CommandBlockWrapper_t) - 16), &BytesProcessed) ==
	                               ENDPOINT_RWSTREAM_IncompleteTransfer)
	{
		if (MSInterfaceInfo->State.IsMassStoreReset)
    7288:	f8 01       	movw	r30, r16
    728a:	90 ad       	ldd	r25, Z+56	; 0x38
    728c:	91 11       	cpse	r25, r1
    728e:	c2 c0       	rjmp	.+388    	; 0x7414 <MS_Device_USBTask+0x1d6>
	uint16_t BytesProcessed;

	Endpoint_SelectEndpoint(MSInterfaceInfo->Config.DataOUTEndpoint.Address);

	BytesProcessed = 0;
	while (Endpoint_Read_Stream_LE(&MSInterfaceInfo->State.CommandBlock,
    7290:	ae 01       	movw	r20, r28
    7292:	4f 5f       	subi	r20, 0xFF	; 255
    7294:	5f 4f       	sbci	r21, 0xFF	; 255
    7296:	6f e0       	ldi	r22, 0x0F	; 15
    7298:	70 e0       	ldi	r23, 0x00	; 0
    729a:	c7 01       	movw	r24, r14
    729c:	ae d1       	rcall	.+860    	; 0x75fa <Endpoint_Read_Stream_LE>
    729e:	85 30       	cpi	r24, 0x05	; 5
    72a0:	99 f3       	breq	.-26     	; 0x7288 <MS_Device_USBTask+0x4a>
	{
		if (MSInterfaceInfo->State.IsMassStoreReset)
		  return false;
	}

	if ((MSInterfaceInfo->State.CommandBlock.Signature         != CPU_TO_LE32(MS_CBW_SIGNATURE))     ||
    72a2:	f8 01       	movw	r30, r16
    72a4:	84 85       	ldd	r24, Z+12	; 0x0c
    72a6:	95 85       	ldd	r25, Z+13	; 0x0d
    72a8:	a6 85       	ldd	r26, Z+14	; 0x0e
    72aa:	b7 85       	ldd	r27, Z+15	; 0x0f
    72ac:	85 35       	cpi	r24, 0x55	; 85
    72ae:	93 45       	sbci	r25, 0x53	; 83
    72b0:	a2 44       	sbci	r26, 0x42	; 66
    72b2:	b3 44       	sbci	r27, 0x43	; 67
    72b4:	99 f4       	brne	.+38     	; 0x72dc <MS_Device_USBTask+0x9e>
    72b6:	d8 01       	movw	r26, r16
    72b8:	59 96       	adiw	r26, 0x19	; 25
    72ba:	9c 91       	ld	r25, X
    72bc:	59 97       	sbiw	r26, 0x19	; 25
    72be:	1b 96       	adiw	r26, 0x0b	; 11
    72c0:	8c 91       	ld	r24, X
    72c2:	1b 97       	sbiw	r26, 0x0b	; 11
    72c4:	98 17       	cp	r25, r24
    72c6:	50 f4       	brcc	.+20     	; 0x72dc <MS_Device_USBTask+0x9e>
	    (MSInterfaceInfo->State.CommandBlock.LUN               >= MSInterfaceInfo->Config.TotalLUNs) ||
		(MSInterfaceInfo->State.CommandBlock.Flags              & 0x1F)                              ||
    72c8:	58 96       	adiw	r26, 0x18	; 24
    72ca:	8c 91       	ld	r24, X
    72cc:	58 97       	sbiw	r26, 0x18	; 24
    72ce:	8f 71       	andi	r24, 0x1F	; 31
		if (MSInterfaceInfo->State.IsMassStoreReset)
		  return false;
	}

	if ((MSInterfaceInfo->State.CommandBlock.Signature         != CPU_TO_LE32(MS_CBW_SIGNATURE))     ||
	    (MSInterfaceInfo->State.CommandBlock.LUN               >= MSInterfaceInfo->Config.TotalLUNs) ||
    72d0:	29 f4       	brne	.+10     	; 0x72dc <MS_Device_USBTask+0x9e>
		(MSInterfaceInfo->State.CommandBlock.Flags              & 0x1F)                              ||
    72d2:	5a 96       	adiw	r26, 0x1a	; 26
    72d4:	8c 91       	ld	r24, X
    72d6:	81 50       	subi	r24, 0x01	; 1
    72d8:	80 31       	cpi	r24, 0x10	; 16
    72da:	78 f0       	brcs	.+30     	; 0x72fa <MS_Device_USBTask+0xbc>
			 *  \ingroup Group_EndpointPacketManagement_AVR8
			 */
			static inline void Endpoint_StallTransaction(void) ATTR_ALWAYS_INLINE;
			static inline void Endpoint_StallTransaction(void)
			{
				UECONX |= (1 << STALLRQ);
    72dc:	eb ee       	ldi	r30, 0xEB	; 235
    72de:	f0 e0       	ldi	r31, 0x00	; 0
    72e0:	80 81       	ld	r24, Z
    72e2:	80 62       	ori	r24, 0x20	; 32
    72e4:	80 83       	st	Z, r24
			 */
			static inline void Endpoint_SelectEndpoint(const uint8_t Address) ATTR_ALWAYS_INLINE;
			static inline void Endpoint_SelectEndpoint(const uint8_t Address)
			{
				#if !defined(CONTROL_ONLY_DEVICE)
					UENUM = (Address & ENDPOINT_EPNUM_MASK);
    72e6:	d8 01       	movw	r26, r16
    72e8:	11 96       	adiw	r26, 0x01	; 1
    72ea:	8c 91       	ld	r24, X
    72ec:	8f 70       	andi	r24, 0x0F	; 15
    72ee:	80 93 e9 00 	sts	0x00E9, r24
			 *  \ingroup Group_EndpointPacketManagement_AVR8
			 */
			static inline void Endpoint_StallTransaction(void) ATTR_ALWAYS_INLINE;
			static inline void Endpoint_StallTransaction(void)
			{
				UECONX |= (1 << STALLRQ);
    72f2:	80 81       	ld	r24, Z
    72f4:	80 62       	ori	r24, 0x20	; 32
    72f6:	80 83       	st	Z, r24
    72f8:	8d c0       	rjmp	.+282    	; 0x7414 <MS_Device_USBTask+0x1d6>
		Endpoint_StallTransaction();

		return false;
	}

	BytesProcessed = 0;
    72fa:	1a 82       	std	Y+2, r1	; 0x02
    72fc:	19 82       	std	Y+1, r1	; 0x01
	while (Endpoint_Read_Stream_LE(&MSInterfaceInfo->State.CommandBlock.SCSICommandData,
    72fe:	78 01       	movw	r14, r16
    7300:	bb e1       	ldi	r27, 0x1B	; 27
    7302:	eb 0e       	add	r14, r27
    7304:	f1 1c       	adc	r15, r1
    7306:	04 c0       	rjmp	.+8      	; 0x7310 <MS_Device_USBTask+0xd2>
	                                MSInterfaceInfo->State.CommandBlock.SCSICommandLength, &BytesProcessed) ==
	                                ENDPOINT_RWSTREAM_IncompleteTransfer)
	{
		if (MSInterfaceInfo->State.IsMassStoreReset)
    7308:	f8 01       	movw	r30, r16
    730a:	90 ad       	ldd	r25, Z+56	; 0x38
    730c:	91 11       	cpse	r25, r1
    730e:	82 c0       	rjmp	.+260    	; 0x7414 <MS_Device_USBTask+0x1d6>

		return false;
	}

	BytesProcessed = 0;
	while (Endpoint_Read_Stream_LE(&MSInterfaceInfo->State.CommandBlock.SCSICommandData,
    7310:	d8 01       	movw	r26, r16
    7312:	5a 96       	adiw	r26, 0x1a	; 26
    7314:	6c 91       	ld	r22, X
    7316:	70 e0       	ldi	r23, 0x00	; 0
    7318:	ae 01       	movw	r20, r28
    731a:	4f 5f       	subi	r20, 0xFF	; 255
    731c:	5f 4f       	sbci	r21, 0xFF	; 255
    731e:	c7 01       	movw	r24, r14
    7320:	6c d1       	rcall	.+728    	; 0x75fa <Endpoint_Read_Stream_LE>
    7322:	85 30       	cpi	r24, 0x05	; 5
    7324:	89 f3       	breq	.-30     	; 0x7308 <MS_Device_USBTask+0xca>
			 */
			static inline void Endpoint_ClearOUT(void) ATTR_ALWAYS_INLINE;
			static inline void Endpoint_ClearOUT(void)
			{
				#if !defined(CONTROL_ONLY_DEVICE)
					UEINTX &= ~((1 << RXOUTI) | (1 << FIFOCON));
    7326:	e8 ee       	ldi	r30, 0xE8	; 232
    7328:	f0 e0       	ldi	r31, 0x00	; 0
    732a:	80 81       	ld	r24, Z
    732c:	8b 77       	andi	r24, 0x7B	; 123
    732e:	80 83       	st	Z, r24

	if (Endpoint_IsOUTReceived())
	{
		if (MS_Device_ReadInCommandBlock(MSInterfaceInfo))
		{
			if (MSInterfaceInfo->State.CommandBlock.Flags & MS_COMMAND_DIR_DATA_IN)
    7330:	f8 01       	movw	r30, r16
    7332:	80 8d       	ldd	r24, Z+24	; 0x18
    7334:	88 23       	and	r24, r24
    7336:	24 f4       	brge	.+8      	; 0x7340 <MS_Device_USBTask+0x102>
			 */
			static inline void Endpoint_SelectEndpoint(const uint8_t Address) ATTR_ALWAYS_INLINE;
			static inline void Endpoint_SelectEndpoint(const uint8_t Address)
			{
				#if !defined(CONTROL_ONLY_DEVICE)
					UENUM = (Address & ENDPOINT_EPNUM_MASK);
    7338:	81 81       	ldd	r24, Z+1	; 0x01
    733a:	8f 70       	andi	r24, 0x0F	; 15
    733c:	80 93 e9 00 	sts	0x00E9, r24
			  Endpoint_SelectEndpoint(MSInterfaceInfo->Config.DataINEndpoint.Address);

			bool SCSICommandResult = CALLBACK_MS_Device_SCSICommandReceived(MSInterfaceInfo);
    7340:	c8 01       	movw	r24, r16
    7342:	b0 da       	rcall	.-2720   	; 0x68a4 <CALLBACK_MS_Device_SCSICommandReceived>

			MSInterfaceInfo->State.CommandStatus.Status              = (SCSICommandResult) ? MS_SCSI_COMMAND_Pass : MS_SCSI_COMMAND_Fail;
    7344:	91 e0       	ldi	r25, 0x01	; 1
    7346:	98 27       	eor	r25, r24
    7348:	d8 01       	movw	r26, r16
    734a:	d7 96       	adiw	r26, 0x37	; 55
    734c:	9c 93       	st	X, r25
    734e:	d7 97       	sbiw	r26, 0x37	; 55
			MSInterfaceInfo->State.CommandStatus.Signature           = CPU_TO_LE32(MS_CSW_SIGNATURE);
    7350:	45 e5       	ldi	r20, 0x55	; 85
    7352:	53 e5       	ldi	r21, 0x53	; 83
    7354:	62 e4       	ldi	r22, 0x42	; 66
    7356:	73 e5       	ldi	r23, 0x53	; 83
    7358:	f8 01       	movw	r30, r16
    735a:	43 a7       	std	Z+43, r20	; 0x2b
    735c:	54 a7       	std	Z+44, r21	; 0x2c
    735e:	65 a7       	std	Z+45, r22	; 0x2d
    7360:	76 a7       	std	Z+46, r23	; 0x2e
			MSInterfaceInfo->State.CommandStatus.Tag                 = MSInterfaceInfo->State.CommandBlock.Tag;
    7362:	40 89       	ldd	r20, Z+16	; 0x10
    7364:	51 89       	ldd	r21, Z+17	; 0x11
    7366:	62 89       	ldd	r22, Z+18	; 0x12
    7368:	73 89       	ldd	r23, Z+19	; 0x13
    736a:	9f 96       	adiw	r26, 0x2f	; 47
    736c:	4d 93       	st	X+, r20
    736e:	5d 93       	st	X+, r21
    7370:	6d 93       	st	X+, r22
    7372:	7c 93       	st	X, r23
    7374:	d2 97       	sbiw	r26, 0x32	; 50
			MSInterfaceInfo->State.CommandStatus.DataTransferResidue = MSInterfaceInfo->State.CommandBlock.DataTransferLength;
    7376:	54 96       	adiw	r26, 0x14	; 20
    7378:	4d 91       	ld	r20, X+
    737a:	5d 91       	ld	r21, X+
    737c:	6d 91       	ld	r22, X+
    737e:	7c 91       	ld	r23, X
    7380:	57 97       	sbiw	r26, 0x17	; 23
    7382:	43 ab       	std	Z+51, r20	; 0x33
    7384:	54 ab       	std	Z+52, r21	; 0x34
    7386:	65 ab       	std	Z+53, r22	; 0x35
    7388:	76 ab       	std	Z+54, r23	; 0x36

			if (!(SCSICommandResult) && (le32_to_cpu(MSInterfaceInfo->State.CommandStatus.DataTransferResidue)))
    738a:	81 11       	cpse	r24, r1
    738c:	09 c0       	rjmp	.+18     	; 0x73a0 <MS_Device_USBTask+0x162>
    738e:	45 2b       	or	r20, r21
    7390:	46 2b       	or	r20, r22
    7392:	47 2b       	or	r20, r23
    7394:	29 f0       	breq	.+10     	; 0x73a0 <MS_Device_USBTask+0x162>
			 *  \ingroup Group_EndpointPacketManagement_AVR8
			 */
			static inline void Endpoint_StallTransaction(void) ATTR_ALWAYS_INLINE;
			static inline void Endpoint_StallTransaction(void)
			{
				UECONX |= (1 << STALLRQ);
    7396:	eb ee       	ldi	r30, 0xEB	; 235
    7398:	f0 e0       	ldi	r31, 0x00	; 0
    739a:	80 81       	ld	r24, Z
    739c:	80 62       	ori	r24, 0x20	; 32
    739e:	80 83       	st	Z, r24
			 */
			static inline void Endpoint_SelectEndpoint(const uint8_t Address) ATTR_ALWAYS_INLINE;
			static inline void Endpoint_SelectEndpoint(const uint8_t Address)
			{
				#if !defined(CONTROL_ONLY_DEVICE)
					UENUM = (Address & ENDPOINT_EPNUM_MASK);
    73a0:	d8 01       	movw	r26, r16
    73a2:	16 96       	adiw	r26, 0x06	; 6
    73a4:	8c 91       	ld	r24, X
    73a6:	8f 70       	andi	r24, 0x0F	; 15
    73a8:	80 93 e9 00 	sts	0x00E9, r24
			 *  \return Boolean \c true if the currently selected endpoint is stalled, \c false otherwise.
			 */
			static inline bool Endpoint_IsStalled(void) ATTR_WARN_UNUSED_RESULT ATTR_ALWAYS_INLINE;
			static inline bool Endpoint_IsStalled(void)
			{
				return ((UECONX & (1 << STALLRQ)) ? true : false);
    73ac:	eb ee       	ldi	r30, 0xEB	; 235
    73ae:	f0 e0       	ldi	r31, 0x00	; 0
    73b0:	05 c0       	rjmp	.+10     	; 0x73bc <MS_Device_USBTask+0x17e>
	{
		#if !defined(INTERRUPT_CONTROL_ENDPOINT)
		USB_USBTask();
		#endif

		if (MSInterfaceInfo->State.IsMassStoreReset)
    73b2:	d8 01       	movw	r26, r16
    73b4:	d8 96       	adiw	r26, 0x38	; 56
    73b6:	8c 91       	ld	r24, X
    73b8:	81 11       	cpse	r24, r1
    73ba:	2c c0       	rjmp	.+88     	; 0x7414 <MS_Device_USBTask+0x1d6>
    73bc:	80 81       	ld	r24, Z

static void MS_Device_ReturnCommandStatus(USB_ClassInfo_MS_Device_t* const MSInterfaceInfo)
{
	Endpoint_SelectEndpoint(MSInterfaceInfo->Config.DataOUTEndpoint.Address);

	while (Endpoint_IsStalled())
    73be:	85 fd       	sbrc	r24, 5
    73c0:	f8 cf       	rjmp	.-16     	; 0x73b2 <MS_Device_USBTask+0x174>
			 */
			static inline void Endpoint_SelectEndpoint(const uint8_t Address) ATTR_ALWAYS_INLINE;
			static inline void Endpoint_SelectEndpoint(const uint8_t Address)
			{
				#if !defined(CONTROL_ONLY_DEVICE)
					UENUM = (Address & ENDPOINT_EPNUM_MASK);
    73c2:	f8 01       	movw	r30, r16
    73c4:	81 81       	ldd	r24, Z+1	; 0x01
    73c6:	8f 70       	andi	r24, 0x0F	; 15
    73c8:	80 93 e9 00 	sts	0x00E9, r24
			 *  \return Boolean \c true if the currently selected endpoint is stalled, \c false otherwise.
			 */
			static inline bool Endpoint_IsStalled(void) ATTR_WARN_UNUSED_RESULT ATTR_ALWAYS_INLINE;
			static inline bool Endpoint_IsStalled(void)
			{
				return ((UECONX & (1 << STALLRQ)) ? true : false);
    73cc:	eb ee       	ldi	r30, 0xEB	; 235
    73ce:	f0 e0       	ldi	r31, 0x00	; 0
    73d0:	05 c0       	rjmp	.+10     	; 0x73dc <MS_Device_USBTask+0x19e>
	{
		#if !defined(INTERRUPT_CONTROL_ENDPOINT)
		USB_USBTask();
		#endif

		if (MSInterfaceInfo->State.IsMassStoreReset)
    73d2:	d8 01       	movw	r26, r16
    73d4:	d8 96       	adiw	r26, 0x38	; 56
    73d6:	8c 91       	ld	r24, X
    73d8:	81 11       	cpse	r24, r1
    73da:	1c c0       	rjmp	.+56     	; 0x7414 <MS_Device_USBTask+0x1d6>
    73dc:	80 81       	ld	r24, Z
		  return;
	}

	Endpoint_SelectEndpoint(MSInterfaceInfo->Config.DataINEndpoint.Address);

	while (Endpoint_IsStalled())
    73de:	85 fd       	sbrc	r24, 5
    73e0:	f8 cf       	rjmp	.-16     	; 0x73d2 <MS_Device_USBTask+0x194>

		if (MSInterfaceInfo->State.IsMassStoreReset)
		  return;
	}

	uint16_t BytesProcessed = 0;
    73e2:	1a 82       	std	Y+2, r1	; 0x02
    73e4:	19 82       	std	Y+1, r1	; 0x01
	while (Endpoint_Write_Stream_LE(&MSInterfaceInfo->State.CommandStatus,
    73e6:	78 01       	movw	r14, r16
    73e8:	bb e2       	ldi	r27, 0x2B	; 43
    73ea:	eb 0e       	add	r14, r27
    73ec:	f1 1c       	adc	r15, r1
    73ee:	04 c0       	rjmp	.+8      	; 0x73f8 <MS_Device_USBTask+0x1ba>
	                                sizeof(MS_CommandStatusWrapper_t), &BytesProcessed) ==
	                                ENDPOINT_RWSTREAM_IncompleteTransfer)
	{
		if (MSInterfaceInfo->State.IsMassStoreReset)
    73f0:	f8 01       	movw	r30, r16
    73f2:	90 ad       	ldd	r25, Z+56	; 0x38
    73f4:	91 11       	cpse	r25, r1
    73f6:	0e c0       	rjmp	.+28     	; 0x7414 <MS_Device_USBTask+0x1d6>
		if (MSInterfaceInfo->State.IsMassStoreReset)
		  return;
	}

	uint16_t BytesProcessed = 0;
	while (Endpoint_Write_Stream_LE(&MSInterfaceInfo->State.CommandStatus,
    73f8:	ae 01       	movw	r20, r28
    73fa:	4f 5f       	subi	r20, 0xFF	; 255
    73fc:	5f 4f       	sbci	r21, 0xFF	; 255
    73fe:	6d e0       	ldi	r22, 0x0D	; 13
    7400:	70 e0       	ldi	r23, 0x00	; 0
    7402:	c7 01       	movw	r24, r14
    7404:	9e d0       	rcall	.+316    	; 0x7542 <Endpoint_Write_Stream_LE>
    7406:	85 30       	cpi	r24, 0x05	; 5
    7408:	99 f3       	breq	.-26     	; 0x73f0 <MS_Device_USBTask+0x1b2>
			 */
			static inline void Endpoint_ClearIN(void) ATTR_ALWAYS_INLINE;
			static inline void Endpoint_ClearIN(void)
			{
				#if !defined(CONTROL_ONLY_DEVICE)
					UEINTX &= ~((1 << TXINI) | (1 << FIFOCON));
    740a:	e8 ee       	ldi	r30, 0xE8	; 232
    740c:	f0 e0       	ldi	r31, 0x00	; 0
    740e:	80 81       	ld	r24, Z
    7410:	8e 77       	andi	r24, 0x7E	; 126
    7412:	80 83       	st	Z, r24

			MS_Device_ReturnCommandStatus(MSInterfaceInfo);
		}
	}

	if (MSInterfaceInfo->State.IsMassStoreReset)
    7414:	d8 01       	movw	r26, r16
    7416:	d8 96       	adiw	r26, 0x38	; 56
    7418:	8c 91       	ld	r24, X
    741a:	d8 97       	sbiw	r26, 0x38	; 56
    741c:	88 23       	and	r24, r24
    741e:	c9 f1       	breq	.+114    	; 0x7492 <MS_Device_USBTask+0x254>
			 *  \param[in] Address  Endpoint address whose FIFO buffers are to be reset.
			 */
			static inline void Endpoint_ResetEndpoint(const uint8_t Address) ATTR_ALWAYS_INLINE;
			static inline void Endpoint_ResetEndpoint(const uint8_t Address)
			{
				UERST = (1 << (Address & ENDPOINT_EPNUM_MASK));
    7420:	16 96       	adiw	r26, 0x06	; 6
    7422:	2c 91       	ld	r18, X
    7424:	16 97       	sbiw	r26, 0x06	; 6
    7426:	2f 70       	andi	r18, 0x0F	; 15
    7428:	81 e0       	ldi	r24, 0x01	; 1
    742a:	90 e0       	ldi	r25, 0x00	; 0
    742c:	fc 01       	movw	r30, r24
    742e:	02 c0       	rjmp	.+4      	; 0x7434 <MS_Device_USBTask+0x1f6>
    7430:	ee 0f       	add	r30, r30
    7432:	ff 1f       	adc	r31, r31
    7434:	2a 95       	dec	r18
    7436:	e2 f7       	brpl	.-8      	; 0x7430 <MS_Device_USBTask+0x1f2>
    7438:	9f 01       	movw	r18, r30
    743a:	ea ee       	ldi	r30, 0xEA	; 234
    743c:	f0 e0       	ldi	r31, 0x00	; 0
    743e:	20 83       	st	Z, r18
				UERST = 0;
    7440:	10 82       	st	Z, r1
			 *  \param[in] Address  Endpoint address whose FIFO buffers are to be reset.
			 */
			static inline void Endpoint_ResetEndpoint(const uint8_t Address) ATTR_ALWAYS_INLINE;
			static inline void Endpoint_ResetEndpoint(const uint8_t Address)
			{
				UERST = (1 << (Address & ENDPOINT_EPNUM_MASK));
    7442:	11 96       	adiw	r26, 0x01	; 1
    7444:	2c 91       	ld	r18, X
    7446:	11 97       	sbiw	r26, 0x01	; 1
    7448:	2f 70       	andi	r18, 0x0F	; 15
    744a:	02 c0       	rjmp	.+4      	; 0x7450 <MS_Device_USBTask+0x212>
    744c:	88 0f       	add	r24, r24
    744e:	99 1f       	adc	r25, r25
    7450:	2a 95       	dec	r18
    7452:	e2 f7       	brpl	.-8      	; 0x744c <MS_Device_USBTask+0x20e>
    7454:	80 83       	st	Z, r24
				UERST = 0;
    7456:	10 82       	st	Z, r1
			 */
			static inline void Endpoint_SelectEndpoint(const uint8_t Address) ATTR_ALWAYS_INLINE;
			static inline void Endpoint_SelectEndpoint(const uint8_t Address)
			{
				#if !defined(CONTROL_ONLY_DEVICE)
					UENUM = (Address & ENDPOINT_EPNUM_MASK);
    7458:	16 96       	adiw	r26, 0x06	; 6
    745a:	8c 91       	ld	r24, X
    745c:	8f 70       	andi	r24, 0x0F	; 15
    745e:	29 ee       	ldi	r18, 0xE9	; 233
    7460:	30 e0       	ldi	r19, 0x00	; 0
    7462:	d9 01       	movw	r26, r18
    7464:	8c 93       	st	X, r24
			 *  \ingroup Group_EndpointPacketManagement_AVR8
			 */
			static inline void Endpoint_ClearStall(void) ATTR_ALWAYS_INLINE;
			static inline void Endpoint_ClearStall(void)
			{
				UECONX |= (1 << STALLRQC);
    7466:	eb ee       	ldi	r30, 0xEB	; 235
    7468:	f0 e0       	ldi	r31, 0x00	; 0
    746a:	80 81       	ld	r24, Z
    746c:	80 61       	ori	r24, 0x10	; 16
    746e:	80 83       	st	Z, r24

			/** Resets the data toggle of the currently selected endpoint. */
			static inline void Endpoint_ResetDataToggle(void) ATTR_ALWAYS_INLINE;
			static inline void Endpoint_ResetDataToggle(void)
			{
				UECONX |= (1 << RSTDT);
    7470:	80 81       	ld	r24, Z
    7472:	88 60       	ori	r24, 0x08	; 8
    7474:	80 83       	st	Z, r24
			 */
			static inline void Endpoint_SelectEndpoint(const uint8_t Address) ATTR_ALWAYS_INLINE;
			static inline void Endpoint_SelectEndpoint(const uint8_t Address)
			{
				#if !defined(CONTROL_ONLY_DEVICE)
					UENUM = (Address & ENDPOINT_EPNUM_MASK);
    7476:	d8 01       	movw	r26, r16
    7478:	11 96       	adiw	r26, 0x01	; 1
    747a:	8c 91       	ld	r24, X
    747c:	8f 70       	andi	r24, 0x0F	; 15
    747e:	d9 01       	movw	r26, r18
    7480:	8c 93       	st	X, r24
			 *  \ingroup Group_EndpointPacketManagement_AVR8
			 */
			static inline void Endpoint_ClearStall(void) ATTR_ALWAYS_INLINE;
			static inline void Endpoint_ClearStall(void)
			{
				UECONX |= (1 << STALLRQC);
    7482:	80 81       	ld	r24, Z
    7484:	80 61       	ori	r24, 0x10	; 16
    7486:	80 83       	st	Z, r24

			/** Resets the data toggle of the currently selected endpoint. */
			static inline void Endpoint_ResetDataToggle(void) ATTR_ALWAYS_INLINE;
			static inline void Endpoint_ResetDataToggle(void)
			{
				UECONX |= (1 << RSTDT);
    7488:	80 81       	ld	r24, Z
    748a:	88 60       	ori	r24, 0x08	; 8
    748c:	80 83       	st	Z, r24
		Endpoint_ResetDataToggle();
		Endpoint_SelectEndpoint(MSInterfaceInfo->Config.DataINEndpoint.Address);
		Endpoint_ClearStall();
		Endpoint_ResetDataToggle();

		MSInterfaceInfo->State.IsMassStoreReset = false;
    748e:	f8 01       	movw	r30, r16
    7490:	10 ae       	std	Z+56, r1	; 0x38
	}
}
    7492:	0f 90       	pop	r0
    7494:	0f 90       	pop	r0
    7496:	df 91       	pop	r29
    7498:	cf 91       	pop	r28
    749a:	1f 91       	pop	r17
    749c:	0f 91       	pop	r16
    749e:	ff 90       	pop	r15
    74a0:	ef 90       	pop	r14
    74a2:	08 95       	ret

000074a4 <Endpoint_Null_Stream>:
			BytesInTransfer++;
		}
	}

	return ENDPOINT_RWSTREAM_NoError;
}
    74a4:	af 92       	push	r10
    74a6:	bf 92       	push	r11
    74a8:	cf 92       	push	r12
    74aa:	df 92       	push	r13
    74ac:	ef 92       	push	r14
    74ae:	ff 92       	push	r15
    74b0:	0f 93       	push	r16
    74b2:	1f 93       	push	r17
    74b4:	cf 93       	push	r28
    74b6:	df 93       	push	r29
    74b8:	ec 01       	movw	r28, r24
    74ba:	6b 01       	movw	r12, r22
    74bc:	18 d2       	rcall	.+1072   	; 0x78ee <Endpoint_WaitUntilReady>
    74be:	81 11       	cpse	r24, r1
    74c0:	35 c0       	rjmp	.+106    	; 0x752c <Endpoint_Null_Stream+0x88>
    74c2:	c1 14       	cp	r12, r1
    74c4:	d1 04       	cpc	r13, r1
    74c6:	29 f0       	breq	.+10     	; 0x74d2 <Endpoint_Null_Stream+0x2e>
    74c8:	f6 01       	movw	r30, r12
    74ca:	80 81       	ld	r24, Z
    74cc:	91 81       	ldd	r25, Z+1	; 0x01
    74ce:	c8 1b       	sub	r28, r24
    74d0:	d9 0b       	sbc	r29, r25
    74d2:	20 97       	sbiw	r28, 0x00	; 0
    74d4:	51 f1       	breq	.+84     	; 0x752a <Endpoint_Null_Stream+0x86>
    74d6:	e1 2c       	mov	r14, r1
    74d8:	f1 2c       	mov	r15, r1
    74da:	08 ee       	ldi	r16, 0xE8	; 232
    74dc:	10 e0       	ldi	r17, 0x00	; 0
    74de:	0f 2e       	mov	r0, r31
    74e0:	f1 ef       	ldi	r31, 0xF1	; 241
    74e2:	af 2e       	mov	r10, r31
    74e4:	b1 2c       	mov	r11, r1
    74e6:	f0 2d       	mov	r31, r0
    74e8:	f8 01       	movw	r30, r16
    74ea:	80 81       	ld	r24, Z
    74ec:	85 fd       	sbrc	r24, 5
    74ee:	13 c0       	rjmp	.+38     	; 0x7516 <Endpoint_Null_Stream+0x72>
    74f0:	80 81       	ld	r24, Z
    74f2:	8e 77       	andi	r24, 0x7E	; 126
    74f4:	80 83       	st	Z, r24
    74f6:	c1 14       	cp	r12, r1
    74f8:	d1 04       	cpc	r13, r1
    74fa:	49 f0       	breq	.+18     	; 0x750e <Endpoint_Null_Stream+0x6a>
    74fc:	f6 01       	movw	r30, r12
    74fe:	80 81       	ld	r24, Z
    7500:	91 81       	ldd	r25, Z+1	; 0x01
    7502:	e8 0e       	add	r14, r24
    7504:	f9 1e       	adc	r15, r25
    7506:	f1 82       	std	Z+1, r15	; 0x01
    7508:	e0 82       	st	Z, r14
    750a:	85 e0       	ldi	r24, 0x05	; 5
    750c:	0f c0       	rjmp	.+30     	; 0x752c <Endpoint_Null_Stream+0x88>
    750e:	ef d1       	rcall	.+990    	; 0x78ee <Endpoint_WaitUntilReady>
    7510:	88 23       	and	r24, r24
    7512:	39 f0       	breq	.+14     	; 0x7522 <Endpoint_Null_Stream+0x7e>
    7514:	0b c0       	rjmp	.+22     	; 0x752c <Endpoint_Null_Stream+0x88>
    7516:	f5 01       	movw	r30, r10
    7518:	10 82       	st	Z, r1
    751a:	21 97       	sbiw	r28, 0x01	; 1
    751c:	ff ef       	ldi	r31, 0xFF	; 255
    751e:	ef 1a       	sub	r14, r31
    7520:	ff 0a       	sbc	r15, r31
    7522:	20 97       	sbiw	r28, 0x00	; 0
    7524:	09 f7       	brne	.-62     	; 0x74e8 <Endpoint_Null_Stream+0x44>
    7526:	80 e0       	ldi	r24, 0x00	; 0
    7528:	01 c0       	rjmp	.+2      	; 0x752c <Endpoint_Null_Stream+0x88>
    752a:	80 e0       	ldi	r24, 0x00	; 0
    752c:	df 91       	pop	r29
    752e:	cf 91       	pop	r28
    7530:	1f 91       	pop	r17
    7532:	0f 91       	pop	r16
    7534:	ff 90       	pop	r15
    7536:	ef 90       	pop	r14
    7538:	df 90       	pop	r13
    753a:	cf 90       	pop	r12
    753c:	bf 90       	pop	r11
    753e:	af 90       	pop	r10
    7540:	08 95       	ret

00007542 <Endpoint_Write_Stream_LE>:
    7542:	8f 92       	push	r8
    7544:	9f 92       	push	r9
    7546:	af 92       	push	r10
    7548:	bf 92       	push	r11
    754a:	cf 92       	push	r12
    754c:	df 92       	push	r13
    754e:	ef 92       	push	r14
    7550:	ff 92       	push	r15
    7552:	0f 93       	push	r16
    7554:	1f 93       	push	r17
    7556:	cf 93       	push	r28
    7558:	df 93       	push	r29
    755a:	8c 01       	movw	r16, r24
    755c:	eb 01       	movw	r28, r22
    755e:	6a 01       	movw	r12, r20
    7560:	c6 d1       	rcall	.+908    	; 0x78ee <Endpoint_WaitUntilReady>
    7562:	81 11       	cpse	r24, r1
    7564:	3d c0       	rjmp	.+122    	; 0x75e0 <Endpoint_Write_Stream_LE+0x9e>
    7566:	c1 14       	cp	r12, r1
    7568:	d1 04       	cpc	r13, r1
    756a:	39 f0       	breq	.+14     	; 0x757a <Endpoint_Write_Stream_LE+0x38>
    756c:	f6 01       	movw	r30, r12
    756e:	80 81       	ld	r24, Z
    7570:	91 81       	ldd	r25, Z+1	; 0x01
    7572:	c8 1b       	sub	r28, r24
    7574:	d9 0b       	sbc	r29, r25
    7576:	08 0f       	add	r16, r24
    7578:	19 1f       	adc	r17, r25
    757a:	20 97       	sbiw	r28, 0x00	; 0
    757c:	81 f1       	breq	.+96     	; 0x75de <Endpoint_Write_Stream_LE+0x9c>
    757e:	e1 2c       	mov	r14, r1
    7580:	f1 2c       	mov	r15, r1
    7582:	0f 2e       	mov	r0, r31
    7584:	f8 ee       	ldi	r31, 0xE8	; 232
    7586:	8f 2e       	mov	r8, r31
    7588:	91 2c       	mov	r9, r1
    758a:	f0 2d       	mov	r31, r0
    758c:	0f 2e       	mov	r0, r31
    758e:	f1 ef       	ldi	r31, 0xF1	; 241
    7590:	af 2e       	mov	r10, r31
    7592:	b1 2c       	mov	r11, r1
    7594:	f0 2d       	mov	r31, r0
    7596:	f4 01       	movw	r30, r8
    7598:	80 81       	ld	r24, Z
    759a:	85 fd       	sbrc	r24, 5
    759c:	13 c0       	rjmp	.+38     	; 0x75c4 <Endpoint_Write_Stream_LE+0x82>
    759e:	80 81       	ld	r24, Z
    75a0:	8e 77       	andi	r24, 0x7E	; 126
    75a2:	80 83       	st	Z, r24
    75a4:	c1 14       	cp	r12, r1
    75a6:	d1 04       	cpc	r13, r1
    75a8:	49 f0       	breq	.+18     	; 0x75bc <Endpoint_Write_Stream_LE+0x7a>
    75aa:	f6 01       	movw	r30, r12
    75ac:	80 81       	ld	r24, Z
    75ae:	91 81       	ldd	r25, Z+1	; 0x01
    75b0:	e8 0e       	add	r14, r24
    75b2:	f9 1e       	adc	r15, r25
    75b4:	f1 82       	std	Z+1, r15	; 0x01
    75b6:	e0 82       	st	Z, r14
    75b8:	85 e0       	ldi	r24, 0x05	; 5
    75ba:	12 c0       	rjmp	.+36     	; 0x75e0 <Endpoint_Write_Stream_LE+0x9e>
    75bc:	98 d1       	rcall	.+816    	; 0x78ee <Endpoint_WaitUntilReady>
    75be:	88 23       	and	r24, r24
    75c0:	51 f0       	breq	.+20     	; 0x75d6 <Endpoint_Write_Stream_LE+0x94>
    75c2:	0e c0       	rjmp	.+28     	; 0x75e0 <Endpoint_Write_Stream_LE+0x9e>
    75c4:	f8 01       	movw	r30, r16
    75c6:	81 91       	ld	r24, Z+
    75c8:	8f 01       	movw	r16, r30
    75ca:	f5 01       	movw	r30, r10
    75cc:	80 83       	st	Z, r24
    75ce:	21 97       	sbiw	r28, 0x01	; 1
    75d0:	ff ef       	ldi	r31, 0xFF	; 255
    75d2:	ef 1a       	sub	r14, r31
    75d4:	ff 0a       	sbc	r15, r31
    75d6:	20 97       	sbiw	r28, 0x00	; 0
    75d8:	f1 f6       	brne	.-68     	; 0x7596 <Endpoint_Write_Stream_LE+0x54>
    75da:	80 e0       	ldi	r24, 0x00	; 0
    75dc:	01 c0       	rjmp	.+2      	; 0x75e0 <Endpoint_Write_Stream_LE+0x9e>
    75de:	80 e0       	ldi	r24, 0x00	; 0
    75e0:	df 91       	pop	r29
    75e2:	cf 91       	pop	r28
    75e4:	1f 91       	pop	r17
    75e6:	0f 91       	pop	r16
    75e8:	ff 90       	pop	r15
    75ea:	ef 90       	pop	r14
    75ec:	df 90       	pop	r13
    75ee:	cf 90       	pop	r12
    75f0:	bf 90       	pop	r11
    75f2:	af 90       	pop	r10
    75f4:	9f 90       	pop	r9
    75f6:	8f 90       	pop	r8
    75f8:	08 95       	ret

000075fa <Endpoint_Read_Stream_LE>:
    75fa:	8f 92       	push	r8
    75fc:	9f 92       	push	r9
    75fe:	af 92       	push	r10
    7600:	bf 92       	push	r11
    7602:	cf 92       	push	r12
    7604:	df 92       	push	r13
    7606:	ef 92       	push	r14
    7608:	ff 92       	push	r15
    760a:	0f 93       	push	r16
    760c:	1f 93       	push	r17
    760e:	cf 93       	push	r28
    7610:	df 93       	push	r29
    7612:	8c 01       	movw	r16, r24
    7614:	eb 01       	movw	r28, r22
    7616:	6a 01       	movw	r12, r20
    7618:	6a d1       	rcall	.+724    	; 0x78ee <Endpoint_WaitUntilReady>
    761a:	81 11       	cpse	r24, r1
    761c:	3d c0       	rjmp	.+122    	; 0x7698 <Endpoint_Read_Stream_LE+0x9e>
    761e:	c1 14       	cp	r12, r1
    7620:	d1 04       	cpc	r13, r1
    7622:	39 f0       	breq	.+14     	; 0x7632 <Endpoint_Read_Stream_LE+0x38>
    7624:	f6 01       	movw	r30, r12
    7626:	80 81       	ld	r24, Z
    7628:	91 81       	ldd	r25, Z+1	; 0x01
    762a:	c8 1b       	sub	r28, r24
    762c:	d9 0b       	sbc	r29, r25
    762e:	08 0f       	add	r16, r24
    7630:	19 1f       	adc	r17, r25
    7632:	20 97       	sbiw	r28, 0x00	; 0
    7634:	81 f1       	breq	.+96     	; 0x7696 <Endpoint_Read_Stream_LE+0x9c>
    7636:	e1 2c       	mov	r14, r1
    7638:	f1 2c       	mov	r15, r1
    763a:	0f 2e       	mov	r0, r31
    763c:	f8 ee       	ldi	r31, 0xE8	; 232
    763e:	8f 2e       	mov	r8, r31
    7640:	91 2c       	mov	r9, r1
    7642:	f0 2d       	mov	r31, r0
    7644:	0f 2e       	mov	r0, r31
    7646:	f1 ef       	ldi	r31, 0xF1	; 241
    7648:	af 2e       	mov	r10, r31
    764a:	b1 2c       	mov	r11, r1
    764c:	f0 2d       	mov	r31, r0
    764e:	f4 01       	movw	r30, r8
    7650:	80 81       	ld	r24, Z
    7652:	85 fd       	sbrc	r24, 5
    7654:	13 c0       	rjmp	.+38     	; 0x767c <Endpoint_Read_Stream_LE+0x82>
    7656:	80 81       	ld	r24, Z
    7658:	8b 77       	andi	r24, 0x7B	; 123
    765a:	80 83       	st	Z, r24
    765c:	c1 14       	cp	r12, r1
    765e:	d1 04       	cpc	r13, r1
    7660:	49 f0       	breq	.+18     	; 0x7674 <Endpoint_Read_Stream_LE+0x7a>
    7662:	f6 01       	movw	r30, r12
    7664:	80 81       	ld	r24, Z
    7666:	91 81       	ldd	r25, Z+1	; 0x01
    7668:	e8 0e       	add	r14, r24
    766a:	f9 1e       	adc	r15, r25
    766c:	f1 82       	std	Z+1, r15	; 0x01
    766e:	e0 82       	st	Z, r14
    7670:	85 e0       	ldi	r24, 0x05	; 5
    7672:	12 c0       	rjmp	.+36     	; 0x7698 <Endpoint_Read_Stream_LE+0x9e>
    7674:	3c d1       	rcall	.+632    	; 0x78ee <Endpoint_WaitUntilReady>
    7676:	88 23       	and	r24, r24
    7678:	51 f0       	breq	.+20     	; 0x768e <Endpoint_Read_Stream_LE+0x94>
    767a:	0e c0       	rjmp	.+28     	; 0x7698 <Endpoint_Read_Stream_LE+0x9e>
    767c:	f5 01       	movw	r30, r10
    767e:	80 81       	ld	r24, Z
    7680:	f8 01       	movw	r30, r16
    7682:	81 93       	st	Z+, r24
    7684:	8f 01       	movw	r16, r30
    7686:	21 97       	sbiw	r28, 0x01	; 1
    7688:	ff ef       	ldi	r31, 0xFF	; 255
    768a:	ef 1a       	sub	r14, r31
    768c:	ff 0a       	sbc	r15, r31
    768e:	20 97       	sbiw	r28, 0x00	; 0
    7690:	f1 f6       	brne	.-68     	; 0x764e <Endpoint_Read_Stream_LE+0x54>
    7692:	80 e0       	ldi	r24, 0x00	; 0
    7694:	01 c0       	rjmp	.+2      	; 0x7698 <Endpoint_Read_Stream_LE+0x9e>
    7696:	80 e0       	ldi	r24, 0x00	; 0
    7698:	df 91       	pop	r29
    769a:	cf 91       	pop	r28
    769c:	1f 91       	pop	r17
    769e:	0f 91       	pop	r16
    76a0:	ff 90       	pop	r15
    76a2:	ef 90       	pop	r14
    76a4:	df 90       	pop	r13
    76a6:	cf 90       	pop	r12
    76a8:	bf 90       	pop	r11
    76aa:	af 90       	pop	r10
    76ac:	9f 90       	pop	r9
    76ae:	8f 90       	pop	r8
    76b0:	08 95       	ret

000076b2 <Endpoint_Write_Control_Stream_LE>:

#if defined(TEMPLATE_FUNC_NAME)

uint8_t TEMPLATE_FUNC_NAME (const void* const Buffer,
                            uint16_t Length)
{
    76b2:	cf 92       	push	r12
    76b4:	df 92       	push	r13
    76b6:	ff 92       	push	r15
    76b8:	0f 93       	push	r16
    76ba:	1f 93       	push	r17
    76bc:	cf 93       	push	r28
    76be:	df 93       	push	r29
	uint8_t* DataStream     = ((uint8_t*)Buffer + TEMPLATE_BUFFER_OFFSET(Length));
	bool     LastPacketFull = false;

	if (Length > USB_ControlRequest.wLength)
    76c0:	20 91 09 02 	lds	r18, 0x0209
    76c4:	30 91 0a 02 	lds	r19, 0x020A
    76c8:	26 17       	cp	r18, r22
    76ca:	37 07       	cpc	r19, r23
    76cc:	58 f0       	brcs	.+22     	; 0x76e4 <Endpoint_Write_Control_Stream_LE+0x32>
	  Length = USB_ControlRequest.wLength;
	else if (!(Length))
    76ce:	61 15       	cp	r22, r1
    76d0:	71 05       	cpc	r23, r1
    76d2:	39 f4       	brne	.+14     	; 0x76e2 <Endpoint_Write_Control_Stream_LE+0x30>
			 */
			static inline void Endpoint_ClearIN(void) ATTR_ALWAYS_INLINE;
			static inline void Endpoint_ClearIN(void)
			{
				#if !defined(CONTROL_ONLY_DEVICE)
					UEINTX &= ~((1 << TXINI) | (1 << FIFOCON));
    76d4:	e8 ee       	ldi	r30, 0xE8	; 232
    76d6:	f0 e0       	ldi	r31, 0x00	; 0
    76d8:	20 81       	ld	r18, Z
    76da:	2e 77       	andi	r18, 0x7E	; 126
    76dc:	20 83       	st	Z, r18
    76de:	9b 01       	movw	r18, r22
    76e0:	01 c0       	rjmp	.+2      	; 0x76e4 <Endpoint_Write_Control_Stream_LE+0x32>
    76e2:	9b 01       	movw	r18, r22
    76e4:	a8 2f       	mov	r26, r24
    76e6:	b9 2f       	mov	r27, r25
    76e8:	10 e0       	ldi	r17, 0x00	; 0
			 *  \return Boolean \c true if the selected endpoint has received a SETUP packet, \c false otherwise.
			 */
			static inline bool Endpoint_IsSETUPReceived(void) ATTR_WARN_UNUSED_RESULT ATTR_ALWAYS_INLINE;
			static inline bool Endpoint_IsSETUPReceived(void)
			{
				return ((UEINTX & (1 << RXSTPI)) ? true : false);
    76ea:	e8 ee       	ldi	r30, 0xE8	; 232
    76ec:	f0 e0       	ldi	r31, 0x00	; 0
			static inline uint16_t Endpoint_BytesInEndpoint(void)
			{
				#if (defined(USB_SERIES_6_AVR) || defined(USB_SERIES_7_AVR))
					return UEBCX;
				#elif defined(USB_SERIES_4_AVR)
					return (((uint16_t)UEBCHX << 8) | UEBCLX);
    76ee:	63 ef       	ldi	r22, 0xF3	; 243
    76f0:	70 e0       	ldi	r23, 0x00	; 0
    76f2:	42 ef       	ldi	r20, 0xF2	; 242
    76f4:	50 e0       	ldi	r21, 0x00	; 0
			 *  \param[in] Data  Data to write into the the currently selected endpoint's FIFO buffer.
			 */
			static inline void Endpoint_Write_8(const uint8_t Data) ATTR_ALWAYS_INLINE;
			static inline void Endpoint_Write_8(const uint8_t Data)
			{
				UEDATX = Data;
    76f6:	0f 2e       	mov	r0, r31
    76f8:	f1 ef       	ldi	r31, 0xF1	; 241
    76fa:	cf 2e       	mov	r12, r31
    76fc:	d1 2c       	mov	r13, r1
    76fe:	f0 2d       	mov	r31, r0
				TEMPLATE_BUFFER_MOVE(DataStream, 1);
				Length--;
				BytesInEndpoint++;
			}

			LastPacketFull = (BytesInEndpoint == USB_Device_ControlEndpointSize);
    7700:	01 e0       	ldi	r16, 0x01	; 1
    7702:	f1 2c       	mov	r15, r1
    7704:	2f c0       	rjmp	.+94     	; 0x7764 <Endpoint_Write_Control_Stream_LE+0xb2>
	else if (!(Length))
	  Endpoint_ClearIN();

	while (Length || LastPacketFull)
	{
		uint8_t USB_DeviceState_LCL = USB_DeviceState;
    7706:	8e b3       	in	r24, 0x1e	; 30

		if (USB_DeviceState_LCL == DEVICE_STATE_Unattached)
    7708:	88 23       	and	r24, r24
    770a:	09 f4       	brne	.+2      	; 0x770e <Endpoint_Write_Control_Stream_LE+0x5c>
    770c:	41 c0       	rjmp	.+130    	; 0x7790 <Endpoint_Write_Control_Stream_LE+0xde>
		  return ENDPOINT_RWCSTREAM_DeviceDisconnected;
		else if (USB_DeviceState_LCL == DEVICE_STATE_Suspended)
    770e:	85 30       	cpi	r24, 0x05	; 5
    7710:	09 f4       	brne	.+2      	; 0x7714 <Endpoint_Write_Control_Stream_LE+0x62>
    7712:	40 c0       	rjmp	.+128    	; 0x7794 <Endpoint_Write_Control_Stream_LE+0xe2>
			 *  \return Boolean \c true if the selected endpoint has received a SETUP packet, \c false otherwise.
			 */
			static inline bool Endpoint_IsSETUPReceived(void) ATTR_WARN_UNUSED_RESULT ATTR_ALWAYS_INLINE;
			static inline bool Endpoint_IsSETUPReceived(void)
			{
				return ((UEINTX & (1 << RXSTPI)) ? true : false);
    7714:	80 81       	ld	r24, Z
		  return ENDPOINT_RWCSTREAM_BusSuspended;
		else if (Endpoint_IsSETUPReceived())
    7716:	83 fd       	sbrc	r24, 3
    7718:	3f c0       	rjmp	.+126    	; 0x7798 <Endpoint_Write_Control_Stream_LE+0xe6>
			 *  \return Boolean \c true if current endpoint is has received an OUT packet, \c false otherwise.
			 */
			static inline bool Endpoint_IsOUTReceived(void) ATTR_WARN_UNUSED_RESULT ATTR_ALWAYS_INLINE;
			static inline bool Endpoint_IsOUTReceived(void)
			{
				return ((UEINTX & (1 << RXOUTI)) ? true : false);
    771a:	80 81       	ld	r24, Z
		  return ENDPOINT_RWCSTREAM_HostAborted;
		else if (Endpoint_IsOUTReceived())
    771c:	82 fd       	sbrc	r24, 2
    771e:	31 c0       	rjmp	.+98     	; 0x7782 <Endpoint_Write_Control_Stream_LE+0xd0>
			 *  \return Boolean \c true if the current endpoint is ready for an IN packet, \c false otherwise.
			 */
			static inline bool Endpoint_IsINReady(void) ATTR_WARN_UNUSED_RESULT ATTR_ALWAYS_INLINE;
			static inline bool Endpoint_IsINReady(void)
			{
				return ((UEINTX & (1 << TXINI)) ? true : false);
    7720:	80 81       	ld	r24, Z
		  break;

		if (Endpoint_IsINReady())
    7722:	80 ff       	sbrs	r24, 0
    7724:	1f c0       	rjmp	.+62     	; 0x7764 <Endpoint_Write_Control_Stream_LE+0xb2>
			static inline uint16_t Endpoint_BytesInEndpoint(void)
			{
				#if (defined(USB_SERIES_6_AVR) || defined(USB_SERIES_7_AVR))
					return UEBCX;
				#elif defined(USB_SERIES_4_AVR)
					return (((uint16_t)UEBCHX << 8) | UEBCLX);
    7726:	eb 01       	movw	r28, r22
    7728:	18 81       	ld	r17, Y
    772a:	ea 01       	movw	r28, r20
    772c:	88 81       	ld	r24, Y
    772e:	90 e0       	ldi	r25, 0x00	; 0
    7730:	91 2b       	or	r25, r17
		{
			uint16_t BytesInEndpoint = Endpoint_BytesInEndpoint();

			while (Length && (BytesInEndpoint < USB_Device_ControlEndpointSize))
    7732:	21 15       	cp	r18, r1
    7734:	31 05       	cpc	r19, r1
    7736:	79 f0       	breq	.+30     	; 0x7756 <Endpoint_Write_Control_Stream_LE+0xa4>
    7738:	88 30       	cpi	r24, 0x08	; 8
    773a:	91 05       	cpc	r25, r1
    773c:	60 f4       	brcc	.+24     	; 0x7756 <Endpoint_Write_Control_Stream_LE+0xa4>
			{
				TEMPLATE_TRANSFER_BYTE(DataStream);
    773e:	1d 91       	ld	r17, X+
			 *  \param[in] Data  Data to write into the the currently selected endpoint's FIFO buffer.
			 */
			static inline void Endpoint_Write_8(const uint8_t Data) ATTR_ALWAYS_INLINE;
			static inline void Endpoint_Write_8(const uint8_t Data)
			{
				UEDATX = Data;
    7740:	e6 01       	movw	r28, r12
    7742:	18 83       	st	Y, r17
				TEMPLATE_BUFFER_MOVE(DataStream, 1);
				Length--;
    7744:	21 50       	subi	r18, 0x01	; 1
    7746:	31 09       	sbc	r19, r1
				BytesInEndpoint++;
    7748:	01 96       	adiw	r24, 0x01	; 1

		if (Endpoint_IsINReady())
		{
			uint16_t BytesInEndpoint = Endpoint_BytesInEndpoint();

			while (Length && (BytesInEndpoint < USB_Device_ControlEndpointSize))
    774a:	21 15       	cp	r18, r1
    774c:	31 05       	cpc	r19, r1
    774e:	19 f0       	breq	.+6      	; 0x7756 <Endpoint_Write_Control_Stream_LE+0xa4>
    7750:	88 30       	cpi	r24, 0x08	; 8
    7752:	91 05       	cpc	r25, r1
    7754:	a1 f7       	brne	.-24     	; 0x773e <Endpoint_Write_Control_Stream_LE+0x8c>
				TEMPLATE_BUFFER_MOVE(DataStream, 1);
				Length--;
				BytesInEndpoint++;
			}

			LastPacketFull = (BytesInEndpoint == USB_Device_ControlEndpointSize);
    7756:	10 2f       	mov	r17, r16
    7758:	08 97       	sbiw	r24, 0x08	; 8
    775a:	09 f0       	breq	.+2      	; 0x775e <Endpoint_Write_Control_Stream_LE+0xac>
    775c:	1f 2d       	mov	r17, r15
			 */
			static inline void Endpoint_ClearIN(void) ATTR_ALWAYS_INLINE;
			static inline void Endpoint_ClearIN(void)
			{
				#if !defined(CONTROL_ONLY_DEVICE)
					UEINTX &= ~((1 << TXINI) | (1 << FIFOCON));
    775e:	80 81       	ld	r24, Z
    7760:	8e 77       	andi	r24, 0x7E	; 126
    7762:	80 83       	st	Z, r24
	if (Length > USB_ControlRequest.wLength)
	  Length = USB_ControlRequest.wLength;
	else if (!(Length))
	  Endpoint_ClearIN();

	while (Length || LastPacketFull)
    7764:	21 15       	cp	r18, r1
    7766:	31 05       	cpc	r19, r1
    7768:	71 f6       	brne	.-100    	; 0x7706 <Endpoint_Write_Control_Stream_LE+0x54>
    776a:	11 11       	cpse	r17, r1
    776c:	cc cf       	rjmp	.-104    	; 0x7706 <Endpoint_Write_Control_Stream_LE+0x54>
    776e:	09 c0       	rjmp	.+18     	; 0x7782 <Endpoint_Write_Control_Stream_LE+0xd0>
		}
	}

	while (!(Endpoint_IsOUTReceived()))
	{
		uint8_t USB_DeviceState_LCL = USB_DeviceState;
    7770:	8e b3       	in	r24, 0x1e	; 30

		if (USB_DeviceState_LCL == DEVICE_STATE_Unattached)
    7772:	88 23       	and	r24, r24
    7774:	99 f0       	breq	.+38     	; 0x779c <Endpoint_Write_Control_Stream_LE+0xea>
		  return ENDPOINT_RWCSTREAM_DeviceDisconnected;
		else if (USB_DeviceState_LCL == DEVICE_STATE_Suspended)
    7776:	85 30       	cpi	r24, 0x05	; 5
    7778:	99 f0       	breq	.+38     	; 0x77a0 <Endpoint_Write_Control_Stream_LE+0xee>
			 *  \return Boolean \c true if the selected endpoint has received a SETUP packet, \c false otherwise.
			 */
			static inline bool Endpoint_IsSETUPReceived(void) ATTR_WARN_UNUSED_RESULT ATTR_ALWAYS_INLINE;
			static inline bool Endpoint_IsSETUPReceived(void)
			{
				return ((UEINTX & (1 << RXSTPI)) ? true : false);
    777a:	80 81       	ld	r24, Z
		  return ENDPOINT_RWCSTREAM_BusSuspended;
		else if (Endpoint_IsSETUPReceived())
    777c:	83 ff       	sbrs	r24, 3
    777e:	03 c0       	rjmp	.+6      	; 0x7786 <Endpoint_Write_Control_Stream_LE+0xd4>
    7780:	11 c0       	rjmp	.+34     	; 0x77a4 <Endpoint_Write_Control_Stream_LE+0xf2>
			 *  \return Boolean \c true if current endpoint is has received an OUT packet, \c false otherwise.
			 */
			static inline bool Endpoint_IsOUTReceived(void) ATTR_WARN_UNUSED_RESULT ATTR_ALWAYS_INLINE;
			static inline bool Endpoint_IsOUTReceived(void)
			{
				return ((UEINTX & (1 << RXOUTI)) ? true : false);
    7782:	e8 ee       	ldi	r30, 0xE8	; 232
    7784:	f0 e0       	ldi	r31, 0x00	; 0
    7786:	80 81       	ld	r24, Z
			LastPacketFull = (BytesInEndpoint == USB_Device_ControlEndpointSize);
			Endpoint_ClearIN();
		}
	}

	while (!(Endpoint_IsOUTReceived()))
    7788:	82 ff       	sbrs	r24, 2
    778a:	f2 cf       	rjmp	.-28     	; 0x7770 <Endpoint_Write_Control_Stream_LE+0xbe>
		  return ENDPOINT_RWCSTREAM_BusSuspended;
		else if (Endpoint_IsSETUPReceived())
		  return ENDPOINT_RWCSTREAM_HostAborted;
	}

	return ENDPOINT_RWCSTREAM_NoError;
    778c:	80 e0       	ldi	r24, 0x00	; 0
    778e:	0b c0       	rjmp	.+22     	; 0x77a6 <Endpoint_Write_Control_Stream_LE+0xf4>
	while (Length || LastPacketFull)
	{
		uint8_t USB_DeviceState_LCL = USB_DeviceState;

		if (USB_DeviceState_LCL == DEVICE_STATE_Unattached)
		  return ENDPOINT_RWCSTREAM_DeviceDisconnected;
    7790:	82 e0       	ldi	r24, 0x02	; 2
    7792:	09 c0       	rjmp	.+18     	; 0x77a6 <Endpoint_Write_Control_Stream_LE+0xf4>
		else if (USB_DeviceState_LCL == DEVICE_STATE_Suspended)
		  return ENDPOINT_RWCSTREAM_BusSuspended;
    7794:	83 e0       	ldi	r24, 0x03	; 3
    7796:	07 c0       	rjmp	.+14     	; 0x77a6 <Endpoint_Write_Control_Stream_LE+0xf4>
		else if (Endpoint_IsSETUPReceived())
		  return ENDPOINT_RWCSTREAM_HostAborted;
    7798:	81 e0       	ldi	r24, 0x01	; 1
    779a:	05 c0       	rjmp	.+10     	; 0x77a6 <Endpoint_Write_Control_Stream_LE+0xf4>
	while (!(Endpoint_IsOUTReceived()))
	{
		uint8_t USB_DeviceState_LCL = USB_DeviceState;

		if (USB_DeviceState_LCL == DEVICE_STATE_Unattached)
		  return ENDPOINT_RWCSTREAM_DeviceDisconnected;
    779c:	82 e0       	ldi	r24, 0x02	; 2
    779e:	03 c0       	rjmp	.+6      	; 0x77a6 <Endpoint_Write_Control_Stream_LE+0xf4>
		else if (USB_DeviceState_LCL == DEVICE_STATE_Suspended)
		  return ENDPOINT_RWCSTREAM_BusSuspended;
    77a0:	83 e0       	ldi	r24, 0x03	; 3
    77a2:	01 c0       	rjmp	.+2      	; 0x77a6 <Endpoint_Write_Control_Stream_LE+0xf4>
		else if (Endpoint_IsSETUPReceived())
		  return ENDPOINT_RWCSTREAM_HostAborted;
    77a4:	81 e0       	ldi	r24, 0x01	; 1
	}

	return ENDPOINT_RWCSTREAM_NoError;
}
    77a6:	df 91       	pop	r29
    77a8:	cf 91       	pop	r28
    77aa:	1f 91       	pop	r17
    77ac:	0f 91       	pop	r16
    77ae:	ff 90       	pop	r15
    77b0:	df 90       	pop	r13
    77b2:	cf 90       	pop	r12
    77b4:	08 95       	ret

000077b6 <Endpoint_ConfigureEndpoint_Prv>:
		UEIENX  = 0;
		UEINTX  = 0;
		UECFG1X = 0;
		Endpoint_DisableEndpoint();
	}
}
    77b6:	8f 70       	andi	r24, 0x0F	; 15
    77b8:	80 93 e9 00 	sts	0x00E9, r24
    77bc:	eb ee       	ldi	r30, 0xEB	; 235
    77be:	f0 e0       	ldi	r31, 0x00	; 0
    77c0:	80 81       	ld	r24, Z
    77c2:	81 60       	ori	r24, 0x01	; 1
    77c4:	80 83       	st	Z, r24
    77c6:	ed ee       	ldi	r30, 0xED	; 237
    77c8:	f0 e0       	ldi	r31, 0x00	; 0
    77ca:	10 82       	st	Z, r1
    77cc:	60 93 ec 00 	sts	0x00EC, r22
    77d0:	40 83       	st	Z, r20
    77d2:	80 91 ee 00 	lds	r24, 0x00EE
    77d6:	88 1f       	adc	r24, r24
    77d8:	88 27       	eor	r24, r24
    77da:	88 1f       	adc	r24, r24
    77dc:	08 95       	ret

000077de <Endpoint_ConfigureEndpointTable>:
    77de:	9f 92       	push	r9
    77e0:	af 92       	push	r10
    77e2:	bf 92       	push	r11
    77e4:	cf 92       	push	r12
    77e6:	df 92       	push	r13
    77e8:	ef 92       	push	r14
    77ea:	ff 92       	push	r15
    77ec:	0f 93       	push	r16
    77ee:	1f 93       	push	r17
    77f0:	cf 93       	push	r28
    77f2:	df 93       	push	r29
    77f4:	66 23       	and	r22, r22
    77f6:	09 f4       	brne	.+2      	; 0x77fa <Endpoint_ConfigureEndpointTable+0x1c>
    77f8:	49 c0       	rjmp	.+146    	; 0x788c <Endpoint_ConfigureEndpointTable+0xae>
    77fa:	e6 2e       	mov	r14, r22
    77fc:	8c 01       	movw	r16, r24
    77fe:	ec 01       	movw	r28, r24
    7800:	0c 5f       	subi	r16, 0xFC	; 252
    7802:	1f 4f       	sbci	r17, 0xFF	; 255
    7804:	f1 2c       	mov	r15, r1
    7806:	d1 2c       	mov	r13, r1
    7808:	68 94       	set
    780a:	bb 24       	eor	r11, r11
    780c:	b3 f8       	bld	r11, 3
    780e:	c1 2c       	mov	r12, r1
    7810:	0f 2e       	mov	r0, r31
    7812:	f6 e0       	ldi	r31, 0x06	; 6
    7814:	af 2e       	mov	r10, r31
    7816:	f0 2d       	mov	r31, r0
    7818:	68 94       	set
    781a:	99 24       	eor	r9, r9
    781c:	91 f8       	bld	r9, 1
    781e:	58 81       	ld	r21, Y
    7820:	55 23       	and	r21, r21
    7822:	61 f1       	breq	.+88     	; 0x787c <Endpoint_ConfigureEndpointTable+0x9e>
    7824:	f8 01       	movw	r30, r16
    7826:	90 81       	ld	r25, Z
    7828:	e9 81       	ldd	r30, Y+1	; 0x01
    782a:	fa 81       	ldd	r31, Y+2	; 0x02
    782c:	d8 01       	movw	r26, r16
    782e:	11 97       	sbiw	r26, 0x01	; 1
    7830:	6c 91       	ld	r22, X
    7832:	85 2f       	mov	r24, r21
    7834:	8f 70       	andi	r24, 0x0F	; 15
    7836:	87 30       	cpi	r24, 0x07	; 7
    7838:	58 f5       	brcc	.+86     	; 0x7890 <Endpoint_ConfigureEndpointTable+0xb2>
    783a:	92 30       	cpi	r25, 0x02	; 2
    783c:	10 f4       	brcc	.+4      	; 0x7842 <Endpoint_ConfigureEndpointTable+0x64>
    783e:	49 2d       	mov	r20, r9
    7840:	01 c0       	rjmp	.+2      	; 0x7844 <Endpoint_ConfigureEndpointTable+0x66>
    7842:	4a 2d       	mov	r20, r10
    7844:	e9 30       	cpi	r30, 0x09	; 9
    7846:	f1 05       	cpc	r31, r1
    7848:	50 f0       	brcs	.+20     	; 0x785e <Endpoint_ConfigureEndpointTable+0x80>
    784a:	2b 2d       	mov	r18, r11
    784c:	3c 2d       	mov	r19, r12
    784e:	9d 2d       	mov	r25, r13
    7850:	9f 5f       	subi	r25, 0xFF	; 255
    7852:	22 0f       	add	r18, r18
    7854:	33 1f       	adc	r19, r19
    7856:	2e 17       	cp	r18, r30
    7858:	3f 07       	cpc	r19, r31
    785a:	d0 f3       	brcs	.-12     	; 0x7850 <Endpoint_ConfigureEndpointTable+0x72>
    785c:	01 c0       	rjmp	.+2      	; 0x7860 <Endpoint_ConfigureEndpointTable+0x82>
    785e:	9d 2d       	mov	r25, r13
    7860:	92 95       	swap	r25
    7862:	90 7f       	andi	r25, 0xF0	; 240
    7864:	49 2b       	or	r20, r25
    7866:	f0 e4       	ldi	r31, 0x40	; 64
    7868:	6f 9f       	mul	r22, r31
    786a:	b0 01       	movw	r22, r0
    786c:	11 24       	eor	r1, r1
    786e:	55 1f       	adc	r21, r21
    7870:	55 27       	eor	r21, r21
    7872:	55 1f       	adc	r21, r21
    7874:	65 2b       	or	r22, r21
    7876:	9f df       	rcall	.-194    	; 0x77b6 <Endpoint_ConfigureEndpoint_Prv>
    7878:	88 23       	and	r24, r24
    787a:	59 f0       	breq	.+22     	; 0x7892 <Endpoint_ConfigureEndpointTable+0xb4>
    787c:	f3 94       	inc	r15
    787e:	25 96       	adiw	r28, 0x05	; 5
    7880:	0b 5f       	subi	r16, 0xFB	; 251
    7882:	1f 4f       	sbci	r17, 0xFF	; 255
    7884:	fe 10       	cpse	r15, r14
    7886:	cb cf       	rjmp	.-106    	; 0x781e <Endpoint_ConfigureEndpointTable+0x40>
    7888:	81 e0       	ldi	r24, 0x01	; 1
    788a:	03 c0       	rjmp	.+6      	; 0x7892 <Endpoint_ConfigureEndpointTable+0xb4>
    788c:	81 e0       	ldi	r24, 0x01	; 1
    788e:	01 c0       	rjmp	.+2      	; 0x7892 <Endpoint_ConfigureEndpointTable+0xb4>
    7890:	80 e0       	ldi	r24, 0x00	; 0
    7892:	df 91       	pop	r29
    7894:	cf 91       	pop	r28
    7896:	1f 91       	pop	r17
    7898:	0f 91       	pop	r16
    789a:	ff 90       	pop	r15
    789c:	ef 90       	pop	r14
    789e:	df 90       	pop	r13
    78a0:	cf 90       	pop	r12
    78a2:	bf 90       	pop	r11
    78a4:	af 90       	pop	r10
    78a6:	9f 90       	pop	r9
    78a8:	08 95       	ret

000078aa <Endpoint_ClearStatusStage>:

void Endpoint_ClearStatusStage(void)
{
	if (USB_ControlRequest.bmRequestType & REQDIR_DEVICETOHOST)
    78aa:	80 91 03 02 	lds	r24, 0x0203
    78ae:	88 23       	and	r24, r24
    78b0:	3c f0       	brlt	.+14     	; 0x78c0 <Endpoint_ClearStatusStage+0x16>
			 *  \return Boolean \c true if the current endpoint is ready for an IN packet, \c false otherwise.
			 */
			static inline bool Endpoint_IsINReady(void) ATTR_WARN_UNUSED_RESULT ATTR_ALWAYS_INLINE;
			static inline bool Endpoint_IsINReady(void)
			{
				return ((UEINTX & (1 << TXINI)) ? true : false);
    78b2:	e8 ee       	ldi	r30, 0xE8	; 232
    78b4:	f0 e0       	ldi	r31, 0x00	; 0
    78b6:	12 c0       	rjmp	.+36     	; 0x78dc <Endpoint_ClearStatusStage+0x32>
	{
		while (!(Endpoint_IsOUTReceived()))
		{
			if (USB_DeviceState == DEVICE_STATE_Unattached)
    78b8:	8e b3       	in	r24, 0x1e	; 30
    78ba:	81 11       	cpse	r24, r1
    78bc:	03 c0       	rjmp	.+6      	; 0x78c4 <Endpoint_ClearStatusStage+0x1a>
    78be:	08 95       	ret
			 *  \return Boolean \c true if current endpoint is has received an OUT packet, \c false otherwise.
			 */
			static inline bool Endpoint_IsOUTReceived(void) ATTR_WARN_UNUSED_RESULT ATTR_ALWAYS_INLINE;
			static inline bool Endpoint_IsOUTReceived(void)
			{
				return ((UEINTX & (1 << RXOUTI)) ? true : false);
    78c0:	e8 ee       	ldi	r30, 0xE8	; 232
    78c2:	f0 e0       	ldi	r31, 0x00	; 0
    78c4:	80 81       	ld	r24, Z

void Endpoint_ClearStatusStage(void)
{
	if (USB_ControlRequest.bmRequestType & REQDIR_DEVICETOHOST)
	{
		while (!(Endpoint_IsOUTReceived()))
    78c6:	82 ff       	sbrs	r24, 2
    78c8:	f7 cf       	rjmp	.-18     	; 0x78b8 <Endpoint_ClearStatusStage+0xe>
			 */
			static inline void Endpoint_ClearOUT(void) ATTR_ALWAYS_INLINE;
			static inline void Endpoint_ClearOUT(void)
			{
				#if !defined(CONTROL_ONLY_DEVICE)
					UEINTX &= ~((1 << RXOUTI) | (1 << FIFOCON));
    78ca:	e8 ee       	ldi	r30, 0xE8	; 232
    78cc:	f0 e0       	ldi	r31, 0x00	; 0
    78ce:	80 81       	ld	r24, Z
    78d0:	8b 77       	andi	r24, 0x7B	; 123
    78d2:	80 83       	st	Z, r24
    78d4:	08 95       	ret
	}
	else
	{
		while (!(Endpoint_IsINReady()))
		{
			if (USB_DeviceState == DEVICE_STATE_Unattached)
    78d6:	8e b3       	in	r24, 0x1e	; 30
    78d8:	88 23       	and	r24, r24
    78da:	41 f0       	breq	.+16     	; 0x78ec <Endpoint_ClearStatusStage+0x42>
			 *  \return Boolean \c true if the current endpoint is ready for an IN packet, \c false otherwise.
			 */
			static inline bool Endpoint_IsINReady(void) ATTR_WARN_UNUSED_RESULT ATTR_ALWAYS_INLINE;
			static inline bool Endpoint_IsINReady(void)
			{
				return ((UEINTX & (1 << TXINI)) ? true : false);
    78dc:	80 81       	ld	r24, Z

		Endpoint_ClearOUT();
	}
	else
	{
		while (!(Endpoint_IsINReady()))
    78de:	80 ff       	sbrs	r24, 0
    78e0:	fa cf       	rjmp	.-12     	; 0x78d6 <Endpoint_ClearStatusStage+0x2c>
			 */
			static inline void Endpoint_ClearIN(void) ATTR_ALWAYS_INLINE;
			static inline void Endpoint_ClearIN(void)
			{
				#if !defined(CONTROL_ONLY_DEVICE)
					UEINTX &= ~((1 << TXINI) | (1 << FIFOCON));
    78e2:	e8 ee       	ldi	r30, 0xE8	; 232
    78e4:	f0 e0       	ldi	r31, 0x00	; 0
    78e6:	80 81       	ld	r24, Z
    78e8:	8e 77       	andi	r24, 0x7E	; 126
    78ea:	80 83       	st	Z, r24
    78ec:	08 95       	ret

000078ee <Endpoint_WaitUntilReady>:
	}
}

#if !defined(CONTROL_ONLY_DEVICE)
uint8_t Endpoint_WaitUntilReady(void)
{
    78ee:	0f 93       	push	r16
    78f0:	1f 93       	push	r17
    78f2:	cf 93       	push	r28
    78f4:	df 93       	push	r29
			 *  \return Current USB frame number from the USB controller.
			 */
			static inline uint16_t USB_Device_GetFrameNumber(void) ATTR_ALWAYS_INLINE ATTR_WARN_UNUSED_RESULT;
			static inline uint16_t USB_Device_GetFrameNumber(void)
			{
				return UDFNUM;
    78f6:	20 91 e4 00 	lds	r18, 0x00E4
    78fa:	30 91 e5 00 	lds	r19, 0x00E5
    78fe:	65 e6       	ldi	r22, 0x65	; 101
			 *  \return The currently selected endpoint's direction, as a \c ENDPOINT_DIR_* mask.
			 */
			static inline uint8_t Endpoint_GetEndpointDirection(void) ATTR_WARN_UNUSED_RESULT ATTR_ALWAYS_INLINE;
			static inline uint8_t Endpoint_GetEndpointDirection(void)
			{
				return (UECFG0X & (1 << EPDIR)) ? ENDPOINT_DIR_IN : ENDPOINT_DIR_OUT;
    7900:	ac ee       	ldi	r26, 0xEC	; 236
    7902:	b0 e0       	ldi	r27, 0x00	; 0
			 *  \return Boolean \c true if current endpoint is has received an OUT packet, \c false otherwise.
			 */
			static inline bool Endpoint_IsOUTReceived(void) ATTR_WARN_UNUSED_RESULT ATTR_ALWAYS_INLINE;
			static inline bool Endpoint_IsOUTReceived(void)
			{
				return ((UEINTX & (1 << RXOUTI)) ? true : false);
    7904:	e8 ee       	ldi	r30, 0xE8	; 232
    7906:	f0 e0       	ldi	r31, 0x00	; 0
			 *  \return Boolean \c true if the currently selected endpoint is stalled, \c false otherwise.
			 */
			static inline bool Endpoint_IsStalled(void) ATTR_WARN_UNUSED_RESULT ATTR_ALWAYS_INLINE;
			static inline bool Endpoint_IsStalled(void)
			{
				return ((UECONX & (1 << STALLRQ)) ? true : false);
    7908:	0b ee       	ldi	r16, 0xEB	; 235
    790a:	10 e0       	ldi	r17, 0x00	; 0
    790c:	44 ee       	ldi	r20, 0xE4	; 228
    790e:	50 e0       	ldi	r21, 0x00	; 0
    7910:	01 c0       	rjmp	.+2      	; 0x7914 <Endpoint_WaitUntilReady+0x26>
    7912:	9c 01       	movw	r18, r24
			 *  \return The currently selected endpoint's direction, as a \c ENDPOINT_DIR_* mask.
			 */
			static inline uint8_t Endpoint_GetEndpointDirection(void) ATTR_WARN_UNUSED_RESULT ATTR_ALWAYS_INLINE;
			static inline uint8_t Endpoint_GetEndpointDirection(void)
			{
				return (UECFG0X & (1 << EPDIR)) ? ENDPOINT_DIR_IN : ENDPOINT_DIR_OUT;
    7914:	9c 91       	ld	r25, X
    7916:	89 2f       	mov	r24, r25
    7918:	81 70       	andi	r24, 0x01	; 1
    791a:	90 fd       	sbrc	r25, 0
    791c:	1c c0       	rjmp	.+56     	; 0x7956 <Endpoint_WaitUntilReady+0x68>
    791e:	1f c0       	rjmp	.+62     	; 0x795e <Endpoint_WaitUntilReady+0x70>
		{
			if (Endpoint_IsOUTReceived())
			  return ENDPOINT_READYWAIT_NoError;
		}

		uint8_t USB_DeviceState_LCL = USB_DeviceState;
    7920:	8e b3       	in	r24, 0x1e	; 30

		if (USB_DeviceState_LCL == DEVICE_STATE_Unattached)
    7922:	88 23       	and	r24, r24
    7924:	81 f0       	breq	.+32     	; 0x7946 <Endpoint_WaitUntilReady+0x58>
		  return ENDPOINT_READYWAIT_DeviceDisconnected;
		else if (USB_DeviceState_LCL == DEVICE_STATE_Suspended)
    7926:	85 30       	cpi	r24, 0x05	; 5
    7928:	81 f0       	breq	.+32     	; 0x794a <Endpoint_WaitUntilReady+0x5c>
			 *  \return Boolean \c true if the currently selected endpoint is stalled, \c false otherwise.
			 */
			static inline bool Endpoint_IsStalled(void) ATTR_WARN_UNUSED_RESULT ATTR_ALWAYS_INLINE;
			static inline bool Endpoint_IsStalled(void)
			{
				return ((UECONX & (1 << STALLRQ)) ? true : false);
    792a:	e8 01       	movw	r28, r16
    792c:	88 81       	ld	r24, Y
		  return ENDPOINT_READYWAIT_BusSuspended;
		else if (Endpoint_IsStalled())
    792e:	85 fd       	sbrc	r24, 5
    7930:	0e c0       	rjmp	.+28     	; 0x794e <Endpoint_WaitUntilReady+0x60>
    7932:	ea 01       	movw	r28, r20
    7934:	88 81       	ld	r24, Y
    7936:	99 81       	ldd	r25, Y+1	; 0x01
		  return ENDPOINT_READYWAIT_EndpointStalled;

		uint16_t CurrentFrameNumber = USB_Device_GetFrameNumber();

		if (CurrentFrameNumber != PreviousFrameNumber)
    7938:	28 17       	cp	r18, r24
    793a:	39 07       	cpc	r19, r25
    793c:	59 f3       	breq	.-42     	; 0x7914 <Endpoint_WaitUntilReady+0x26>
    793e:	61 50       	subi	r22, 0x01	; 1
		{
			PreviousFrameNumber = CurrentFrameNumber;

			if (!(TimeoutMSRem--))
    7940:	41 f7       	brne	.-48     	; 0x7912 <Endpoint_WaitUntilReady+0x24>
			  return ENDPOINT_READYWAIT_Timeout;
    7942:	84 e0       	ldi	r24, 0x04	; 4
    7944:	0f c0       	rjmp	.+30     	; 0x7964 <Endpoint_WaitUntilReady+0x76>
		}

		uint8_t USB_DeviceState_LCL = USB_DeviceState;

		if (USB_DeviceState_LCL == DEVICE_STATE_Unattached)
		  return ENDPOINT_READYWAIT_DeviceDisconnected;
    7946:	82 e0       	ldi	r24, 0x02	; 2
    7948:	0d c0       	rjmp	.+26     	; 0x7964 <Endpoint_WaitUntilReady+0x76>
		else if (USB_DeviceState_LCL == DEVICE_STATE_Suspended)
		  return ENDPOINT_READYWAIT_BusSuspended;
    794a:	83 e0       	ldi	r24, 0x03	; 3
    794c:	0b c0       	rjmp	.+22     	; 0x7964 <Endpoint_WaitUntilReady+0x76>
		else if (Endpoint_IsStalled())
		  return ENDPOINT_READYWAIT_EndpointStalled;
    794e:	81 e0       	ldi	r24, 0x01	; 1
    7950:	09 c0       	rjmp	.+18     	; 0x7964 <Endpoint_WaitUntilReady+0x76>
	for (;;)
	{
		if (Endpoint_GetEndpointDirection() == ENDPOINT_DIR_IN)
		{
			if (Endpoint_IsINReady())
			  return ENDPOINT_READYWAIT_NoError;
    7952:	80 e0       	ldi	r24, 0x00	; 0
    7954:	07 c0       	rjmp	.+14     	; 0x7964 <Endpoint_WaitUntilReady+0x76>
			 *  \return Boolean \c true if the current endpoint is ready for an IN packet, \c false otherwise.
			 */
			static inline bool Endpoint_IsINReady(void) ATTR_WARN_UNUSED_RESULT ATTR_ALWAYS_INLINE;
			static inline bool Endpoint_IsINReady(void)
			{
				return ((UEINTX & (1 << TXINI)) ? true : false);
    7956:	80 81       	ld	r24, Z

	for (;;)
	{
		if (Endpoint_GetEndpointDirection() == ENDPOINT_DIR_IN)
		{
			if (Endpoint_IsINReady())
    7958:	80 ff       	sbrs	r24, 0
    795a:	e2 cf       	rjmp	.-60     	; 0x7920 <Endpoint_WaitUntilReady+0x32>
    795c:	fa cf       	rjmp	.-12     	; 0x7952 <Endpoint_WaitUntilReady+0x64>
			 *  \return Boolean \c true if current endpoint is has received an OUT packet, \c false otherwise.
			 */
			static inline bool Endpoint_IsOUTReceived(void) ATTR_WARN_UNUSED_RESULT ATTR_ALWAYS_INLINE;
			static inline bool Endpoint_IsOUTReceived(void)
			{
				return ((UEINTX & (1 << RXOUTI)) ? true : false);
    795e:	90 81       	ld	r25, Z
			  return ENDPOINT_READYWAIT_NoError;
		}
		else
		{
			if (Endpoint_IsOUTReceived())
    7960:	92 ff       	sbrs	r25, 2
    7962:	de cf       	rjmp	.-68     	; 0x7920 <Endpoint_WaitUntilReady+0x32>

			if (!(TimeoutMSRem--))
			  return ENDPOINT_READYWAIT_Timeout;
		}
	}
}
    7964:	df 91       	pop	r29
    7966:	cf 91       	pop	r28
    7968:	1f 91       	pop	r17
    796a:	0f 91       	pop	r16
    796c:	08 95       	ret

0000796e <USB_ResetInterface>:

	USB_IsInitialized = false;
}

void USB_ResetInterface(void)
{
    796e:	0f 93       	push	r16
    7970:	1f 93       	push	r17
    7972:	cf 93       	push	r28
    7974:	df 93       	push	r29
	#if defined(USB_CAN_BE_BOTH)
	bool UIDModeSelectEnabled = ((UHWCON & (1 << UIDE)) != 0);
	#endif

	USB_INT_DisableAllInterrupts();
    7976:	47 d0       	rcall	.+142    	; 0x7a06 <USB_INT_DisableAllInterrupts>
	USB_INT_ClearAllInterrupts();
    7978:	4e d0       	rcall	.+156    	; 0x7a16 <USB_INT_ClearAllInterrupts>
			}

			static inline void USB_Controller_Reset(void) ATTR_ALWAYS_INLINE;
			static inline void USB_Controller_Reset(void)
			{
				USBCON &= ~(1 << USBE);
    797a:	c8 ed       	ldi	r28, 0xD8	; 216
    797c:	d0 e0       	ldi	r29, 0x00	; 0
    797e:	88 81       	ld	r24, Y
    7980:	8f 77       	andi	r24, 0x7F	; 127
    7982:	88 83       	st	Y, r24
				USBCON |=  (1 << USBE);
    7984:	88 81       	ld	r24, Y
    7986:	80 68       	ori	r24, 0x80	; 128
    7988:	88 83       	st	Y, r24
			}

			static inline void USB_CLK_Unfreeze(void) ATTR_ALWAYS_INLINE;
			static inline void USB_CLK_Unfreeze(void)
			{
				USBCON &= ~(1 << FRZCLK);
    798a:	88 81       	ld	r24, Y
    798c:	8f 7d       	andi	r24, 0xDF	; 223
    798e:	88 83       	st	Y, r24
			}

			static inline void USB_PLL_Off(void) ATTR_ALWAYS_INLINE;
			static inline void USB_PLL_Off(void)
			{
				PLLCSR = 0;
    7990:	19 bc       	out	0x29, r1	; 41
}

#if defined(USB_CAN_BE_DEVICE)
static void USB_Init_Device(void)
{
	USB_DeviceState                 = DEVICE_STATE_Unattached;
    7992:	1e ba       	out	0x1e, r1	; 30
	USB_Device_ConfigurationNumber  = 0;
    7994:	10 92 01 02 	sts	0x0201, r1
			}

			static inline void USB_Device_SetFullSpeed(void) ATTR_ALWAYS_INLINE;
			static inline void USB_Device_SetFullSpeed(void)
			{
				UDCON &= ~(1 << LSM);
    7998:	00 ee       	ldi	r16, 0xE0	; 224
    799a:	10 e0       	ldi	r17, 0x00	; 0
    799c:	f8 01       	movw	r30, r16
    799e:	80 81       	ld	r24, Z
    79a0:	8b 7f       	andi	r24, 0xFB	; 251
    79a2:	80 83       	st	Z, r24
			{
				switch (Interrupt)
				{
					#if (defined(USB_SERIES_4_AVR) || defined(USB_SERIES_6_AVR) || defined(USB_SERIES_7_AVR))
					case USB_INT_VBUSTI:
						USBCON |= (1 << VBUSTE);
    79a4:	88 81       	ld	r24, Y
    79a6:	81 60       	ori	r24, 0x01	; 1
    79a8:	88 83       	st	Y, r24
				uint8_t Number = (Address & ENDPOINT_EPNUM_MASK);

				if (Number >= ENDPOINT_TOTAL_ENDPOINTS)
				  return false;

				return Endpoint_ConfigureEndpoint_Prv(Number,
    79aa:	42 e0       	ldi	r20, 0x02	; 2
    79ac:	60 e0       	ldi	r22, 0x00	; 0
    79ae:	80 e0       	ldi	r24, 0x00	; 0
    79b0:	02 df       	rcall	.-508    	; 0x77b6 <Endpoint_ConfigureEndpoint_Prv>
					#if defined(USB_CAN_BE_DEVICE)
					case USB_INT_WAKEUPI:
						UDINT  &= ~(1 << WAKEUPI);
						break;
					case USB_INT_SUSPI:
						UDINT  &= ~(1 << SUSPI);
    79b2:	e1 ee       	ldi	r30, 0xE1	; 225
    79b4:	f0 e0       	ldi	r31, 0x00	; 0
    79b6:	80 81       	ld	r24, Z
    79b8:	8e 7f       	andi	r24, 0xFE	; 254
    79ba:	80 83       	st	Z, r24
					#if defined(USB_CAN_BE_DEVICE)
					case USB_INT_WAKEUPI:
						UDIEN  |= (1 << WAKEUPE);
						break;
					case USB_INT_SUSPI:
						UDIEN  |= (1 << SUSPE);
    79bc:	e2 ee       	ldi	r30, 0xE2	; 226
    79be:	f0 e0       	ldi	r31, 0x00	; 0
    79c0:	80 81       	ld	r24, Z
    79c2:	81 60       	ori	r24, 0x01	; 1
    79c4:	80 83       	st	Z, r24
						break;
					case USB_INT_EORSTI:
						UDIEN  |= (1 << EORSTE);
    79c6:	80 81       	ld	r24, Z
    79c8:	88 60       	ori	r24, 0x08	; 8
    79ca:	80 83       	st	Z, r24
			 *  register and despite the datasheet making no mention of its requirement in host mode.
			 */
			static inline void USB_Attach(void) ATTR_ALWAYS_INLINE;
			static inline void USB_Attach(void)
			{
				UDCON  &= ~(1 << DETACH);
    79cc:	f8 01       	movw	r30, r16
    79ce:	80 81       	ld	r24, Z
    79d0:	8e 7f       	andi	r24, 0xFE	; 254
    79d2:	80 83       	st	Z, r24

			#if defined(USB_SERIES_4_AVR) || defined(USB_SERIES_6_AVR) || defined(USB_SERIES_7_AVR)
			static inline void USB_OTGPAD_On(void) ATTR_ALWAYS_INLINE;
			static inline void USB_OTGPAD_On(void)
			{
				USBCON |=  (1 << OTGPADE);
    79d4:	88 81       	ld	r24, Y
    79d6:	80 61       	ori	r24, 0x10	; 16
    79d8:	88 83       	st	Y, r24
	}

	#if (defined(USB_SERIES_4_AVR) || defined(USB_SERIES_6_AVR) || defined(USB_SERIES_7_AVR))
	USB_OTGPAD_On();
	#endif
}
    79da:	df 91       	pop	r29
    79dc:	cf 91       	pop	r28
    79de:	1f 91       	pop	r17
    79e0:	0f 91       	pop	r16
    79e2:	08 95       	ret

000079e4 <USB_Init>:
			}

			static inline void USB_OTGPAD_Off(void) ATTR_ALWAYS_INLINE;
			static inline void USB_OTGPAD_Off(void)
			{
				USBCON &= ~(1 << OTGPADE);
    79e4:	e8 ed       	ldi	r30, 0xD8	; 216
    79e6:	f0 e0       	ldi	r31, 0x00	; 0
    79e8:	80 81       	ld	r24, Z
    79ea:	8f 7e       	andi	r24, 0xEF	; 239
    79ec:	80 83       	st	Z, r24

			static inline void USB_REG_On(void) ATTR_ALWAYS_INLINE;
			static inline void USB_REG_On(void)
			{
			#if defined(USB_SERIES_4_AVR) || defined(USB_SERIES_6_AVR) || defined(USB_SERIES_7_AVR)
				UHWCON |=  (1 << UVREGE);
    79ee:	e7 ed       	ldi	r30, 0xD7	; 215
    79f0:	f0 e0       	ldi	r31, 0x00	; 0
    79f2:	80 81       	ld	r24, Z
    79f4:	81 60       	ori	r24, 0x01	; 1
    79f6:	80 83       	st	Z, r24
	  USB_REG_Off();

	if (!(USB_Options & USB_OPT_MANUAL_PLL))
	{
		#if defined(USB_SERIES_4_AVR)
		PLLFRQ = (1 << PDIV2);
    79f8:	84 e0       	ldi	r24, 0x04	; 4
    79fa:	82 bf       	out	0x32, r24	; 50
		UHWCON &= ~(1 << UIDE);
		USB_CurrentMode = Mode;
	}
	#endif

	USB_IsInitialized = true;
    79fc:	81 e0       	ldi	r24, 0x01	; 1
    79fe:	80 93 02 02 	sts	0x0202, r24

	USB_ResetInterface();
    7a02:	b5 cf       	rjmp	.-150    	; 0x796e <USB_ResetInterface>
    7a04:	08 95       	ret

00007a06 <USB_INT_DisableAllInterrupts>:
void USB_INT_DisableAllInterrupts(void)
{
	#if defined(USB_SERIES_6_AVR) || defined(USB_SERIES_7_AVR)
	USBCON &= ~((1 << VBUSTE) | (1 << IDTE));
	#elif defined(USB_SERIES_4_AVR)
	USBCON &= ~(1 << VBUSTE);
    7a06:	e8 ed       	ldi	r30, 0xD8	; 216
    7a08:	f0 e0       	ldi	r31, 0x00	; 0
    7a0a:	80 81       	ld	r24, Z
    7a0c:	8e 7f       	andi	r24, 0xFE	; 254
    7a0e:	80 83       	st	Z, r24
	#if defined(USB_CAN_BE_HOST)
	UHIEN   = 0;
	#endif

	#if defined(USB_CAN_BE_DEVICE)
	UDIEN   = 0;
    7a10:	10 92 e2 00 	sts	0x00E2, r1
    7a14:	08 95       	ret

00007a16 <USB_INT_ClearAllInterrupts>:
}

void USB_INT_ClearAllInterrupts(void)
{
	#if defined(USB_SERIES_4_AVR) || defined(USB_SERIES_6_AVR) || defined(USB_SERIES_7_AVR)
	USBINT = 0;
    7a16:	10 92 da 00 	sts	0x00DA, r1
	#if defined(USB_CAN_BE_HOST)
	UHINT  = 0;
	#endif

	#if defined(USB_CAN_BE_DEVICE)
	UDINT  = 0;
    7a1a:	10 92 e1 00 	sts	0x00E1, r1
    7a1e:	08 95       	ret

00007a20 <__vector_10>:
	#endif
}

ISR(USB_GEN_vect, ISR_BLOCK)
{
    7a20:	1f 92       	push	r1
    7a22:	0f 92       	push	r0
    7a24:	0f b6       	in	r0, 0x3f	; 63
    7a26:	0f 92       	push	r0
    7a28:	11 24       	eor	r1, r1
    7a2a:	2f 93       	push	r18
    7a2c:	3f 93       	push	r19
    7a2e:	4f 93       	push	r20
    7a30:	5f 93       	push	r21
    7a32:	6f 93       	push	r22
    7a34:	7f 93       	push	r23
    7a36:	8f 93       	push	r24
    7a38:	9f 93       	push	r25
    7a3a:	af 93       	push	r26
    7a3c:	bf 93       	push	r27
    7a3e:	ef 93       	push	r30
    7a40:	ff 93       	push	r31
			{
				switch (Interrupt)
				{
					#if (defined(USB_SERIES_4_AVR) || defined(USB_SERIES_6_AVR) || defined(USB_SERIES_7_AVR))
					case USB_INT_VBUSTI:
						return (USBINT & (1 << VBUSTI));
    7a42:	80 91 da 00 	lds	r24, 0x00DA
		EVENT_USB_Device_StartOfFrame();
	}
	#endif

	#if defined(USB_SERIES_4_AVR) || defined(USB_SERIES_6_AVR) || defined(USB_SERIES_7_AVR)
	if (USB_INT_HasOccurred(USB_INT_VBUSTI) && USB_INT_IsEnabled(USB_INT_VBUSTI))
    7a46:	80 ff       	sbrs	r24, 0
    7a48:	1d c0       	rjmp	.+58     	; 0x7a84 <__vector_10+0x64>
			{
				switch (Interrupt)
				{
					#if (defined(USB_SERIES_4_AVR) || defined(USB_SERIES_6_AVR) || defined(USB_SERIES_7_AVR))
					case USB_INT_VBUSTI:
						return (USBCON & (1 << VBUSTE));
    7a4a:	80 91 d8 00 	lds	r24, 0x00D8
    7a4e:	80 ff       	sbrs	r24, 0
    7a50:	19 c0       	rjmp	.+50     	; 0x7a84 <__vector_10+0x64>
			{
				switch (Interrupt)
				{
					#if (defined(USB_SERIES_4_AVR) || defined(USB_SERIES_6_AVR) || defined(USB_SERIES_7_AVR))
					case USB_INT_VBUSTI:
						USBINT &= ~(1 << VBUSTI);
    7a52:	ea ed       	ldi	r30, 0xDA	; 218
    7a54:	f0 e0       	ldi	r31, 0x00	; 0
    7a56:	80 81       	ld	r24, Z
    7a58:	8e 7f       	andi	r24, 0xFE	; 254
    7a5a:	80 83       	st	Z, r24
				 *  \return Boolean \c true if the VBUS line is currently detecting power from a host, \c false otherwise.
				 */
				static inline bool USB_VBUS_GetStatus(void) ATTR_WARN_UNUSED_RESULT ATTR_ALWAYS_INLINE;
				static inline bool USB_VBUS_GetStatus(void)
				{
					return ((USBSTA & (1 << VBUS)) ? true : false);
    7a5c:	80 91 d9 00 	lds	r24, 0x00D9
	{
		USB_INT_Clear(USB_INT_VBUSTI);

		if (USB_VBUS_GetStatus())
    7a60:	80 ff       	sbrs	r24, 0
    7a62:	0c c0       	rjmp	.+24     	; 0x7a7c <__vector_10+0x5c>

		/* Inline Functions: */
			static inline void USB_PLL_On(void) ATTR_ALWAYS_INLINE;
			static inline void USB_PLL_On(void)
			{
				PLLCSR = USB_PLL_PSC;
    7a64:	80 e1       	ldi	r24, 0x10	; 16
    7a66:	89 bd       	out	0x29, r24	; 41
				PLLCSR = (USB_PLL_PSC | (1 << PLLE));
    7a68:	82 e1       	ldi	r24, 0x12	; 18
    7a6a:	89 bd       	out	0x29, r24	; 41
		{
			if (!(USB_Options & USB_OPT_MANUAL_PLL))
			{
				USB_PLL_On();
				while (!(USB_PLL_IsReady()));
    7a6c:	09 b4       	in	r0, 0x29	; 41
    7a6e:	00 fe       	sbrs	r0, 0
    7a70:	fd cf       	rjmp	.-6      	; 0x7a6c <__vector_10+0x4c>
			}

			USB_DeviceState = DEVICE_STATE_Powered;
    7a72:	81 e0       	ldi	r24, 0x01	; 1
    7a74:	8e bb       	out	0x1e, r24	; 30
			EVENT_USB_Device_Connect();
    7a76:	0e 94 48 34 	call	0x6890	; 0x6890 <EVENT_USB_Device_Connect>
    7a7a:	04 c0       	rjmp	.+8      	; 0x7a84 <__vector_10+0x64>
			}

			static inline void USB_PLL_Off(void) ATTR_ALWAYS_INLINE;
			static inline void USB_PLL_Off(void)
			{
				PLLCSR = 0;
    7a7c:	19 bc       	out	0x29, r1	; 41
		else
		{
			if (!(USB_Options & USB_OPT_MANUAL_PLL))
			  USB_PLL_Off();

			USB_DeviceState = DEVICE_STATE_Unattached;
    7a7e:	1e ba       	out	0x1e, r1	; 30
			EVENT_USB_Device_Disconnect();
    7a80:	0e 94 49 34 	call	0x6892	; 0x6892 <EVENT_USB_Device_Disconnect>
					#endif
					#if defined(USB_CAN_BE_DEVICE)
					case USB_INT_WAKEUPI:
						return (UDINT  & (1 << WAKEUPI));
					case USB_INT_SUSPI:
						return (UDINT  & (1 << SUSPI));
    7a84:	80 91 e1 00 	lds	r24, 0x00E1
		}
	}
	#endif

	if (USB_INT_HasOccurred(USB_INT_SUSPI) && USB_INT_IsEnabled(USB_INT_SUSPI))
    7a88:	80 ff       	sbrs	r24, 0
    7a8a:	15 c0       	rjmp	.+42     	; 0x7ab6 <__vector_10+0x96>
					#endif
					#if defined(USB_CAN_BE_DEVICE)
					case USB_INT_WAKEUPI:
						return (UDIEN  & (1 << WAKEUPE));
					case USB_INT_SUSPI:
						return (UDIEN  & (1 << SUSPE));
    7a8c:	80 91 e2 00 	lds	r24, 0x00E2
    7a90:	80 ff       	sbrs	r24, 0
    7a92:	11 c0       	rjmp	.+34     	; 0x7ab6 <__vector_10+0x96>
					#if defined(USB_CAN_BE_DEVICE)
					case USB_INT_WAKEUPI:
						UDIEN  &= ~(1 << WAKEUPE);
						break;
					case USB_INT_SUSPI:
						UDIEN  &= ~(1 << SUSPE);
    7a94:	e2 ee       	ldi	r30, 0xE2	; 226
    7a96:	f0 e0       	ldi	r31, 0x00	; 0
    7a98:	80 81       	ld	r24, Z
    7a9a:	8e 7f       	andi	r24, 0xFE	; 254
    7a9c:	80 83       	st	Z, r24
						USBCON |= (1 << IDTE);
						break;
					#endif
					#if defined(USB_CAN_BE_DEVICE)
					case USB_INT_WAKEUPI:
						UDIEN  |= (1 << WAKEUPE);
    7a9e:	80 81       	ld	r24, Z
    7aa0:	80 61       	ori	r24, 0x10	; 16
    7aa2:	80 83       	st	Z, r24
			#endif

			static inline void USB_CLK_Freeze(void) ATTR_ALWAYS_INLINE;
			static inline void USB_CLK_Freeze(void)
			{
				USBCON |=  (1 << FRZCLK);
    7aa4:	e8 ed       	ldi	r30, 0xD8	; 216
    7aa6:	f0 e0       	ldi	r31, 0x00	; 0
    7aa8:	80 81       	ld	r24, Z
    7aaa:	80 62       	ori	r24, 0x20	; 32
    7aac:	80 83       	st	Z, r24
			}

			static inline void USB_PLL_Off(void) ATTR_ALWAYS_INLINE;
			static inline void USB_PLL_Off(void)
			{
				PLLCSR = 0;
    7aae:	19 bc       	out	0x29, r1	; 41

		#if defined(USB_SERIES_2_AVR) && !defined(NO_LIMITED_CONTROLLER_CONNECT)
		USB_DeviceState = DEVICE_STATE_Unattached;
		EVENT_USB_Device_Disconnect();
		#else
		USB_DeviceState = DEVICE_STATE_Suspended;
    7ab0:	85 e0       	ldi	r24, 0x05	; 5
    7ab2:	8e bb       	out	0x1e, r24	; 30
		EVENT_USB_Device_Suspend();
    7ab4:	ce d1       	rcall	.+924    	; 0x7e52 <USB_Event_Stub>
					case USB_INT_IDTI:
						return (USBINT & (1 << IDTI));
					#endif
					#if defined(USB_CAN_BE_DEVICE)
					case USB_INT_WAKEUPI:
						return (UDINT  & (1 << WAKEUPI));
    7ab6:	80 91 e1 00 	lds	r24, 0x00E1
		#endif
	}

	if (USB_INT_HasOccurred(USB_INT_WAKEUPI) && USB_INT_IsEnabled(USB_INT_WAKEUPI))
    7aba:	84 ff       	sbrs	r24, 4
    7abc:	2d c0       	rjmp	.+90     	; 0x7b18 <__vector_10+0xf8>
					case USB_INT_IDTI:
						return (USBCON & (1 << IDTE));
					#endif
					#if defined(USB_CAN_BE_DEVICE)
					case USB_INT_WAKEUPI:
						return (UDIEN  & (1 << WAKEUPE));
    7abe:	80 91 e2 00 	lds	r24, 0x00E2
    7ac2:	84 ff       	sbrs	r24, 4
    7ac4:	29 c0       	rjmp	.+82     	; 0x7b18 <__vector_10+0xf8>

		/* Inline Functions: */
			static inline void USB_PLL_On(void) ATTR_ALWAYS_INLINE;
			static inline void USB_PLL_On(void)
			{
				PLLCSR = USB_PLL_PSC;
    7ac6:	80 e1       	ldi	r24, 0x10	; 16
    7ac8:	89 bd       	out	0x29, r24	; 41
				PLLCSR = (USB_PLL_PSC | (1 << PLLE));
    7aca:	82 e1       	ldi	r24, 0x12	; 18
    7acc:	89 bd       	out	0x29, r24	; 41
	{
		if (!(USB_Options & USB_OPT_MANUAL_PLL))
		{
			USB_PLL_On();
			while (!(USB_PLL_IsReady()));
    7ace:	09 b4       	in	r0, 0x29	; 41
    7ad0:	00 fe       	sbrs	r0, 0
    7ad2:	fd cf       	rjmp	.-6      	; 0x7ace <__vector_10+0xae>
			}

			static inline void USB_CLK_Unfreeze(void) ATTR_ALWAYS_INLINE;
			static inline void USB_CLK_Unfreeze(void)
			{
				USBCON &= ~(1 << FRZCLK);
    7ad4:	e8 ed       	ldi	r30, 0xD8	; 216
    7ad6:	f0 e0       	ldi	r31, 0x00	; 0
    7ad8:	80 81       	ld	r24, Z
    7ada:	8f 7d       	andi	r24, 0xDF	; 223
    7adc:	80 83       	st	Z, r24
						USBINT &= ~(1 << IDTI);
						break;
					#endif
					#if defined(USB_CAN_BE_DEVICE)
					case USB_INT_WAKEUPI:
						UDINT  &= ~(1 << WAKEUPI);
    7ade:	e1 ee       	ldi	r30, 0xE1	; 225
    7ae0:	f0 e0       	ldi	r31, 0x00	; 0
    7ae2:	80 81       	ld	r24, Z
    7ae4:	8f 7e       	andi	r24, 0xEF	; 239
    7ae6:	80 83       	st	Z, r24
						USBCON &= ~(1 << IDTE);
						break;
					#endif
					#if defined(USB_CAN_BE_DEVICE)
					case USB_INT_WAKEUPI:
						UDIEN  &= ~(1 << WAKEUPE);
    7ae8:	e2 ee       	ldi	r30, 0xE2	; 226
    7aea:	f0 e0       	ldi	r31, 0x00	; 0
    7aec:	80 81       	ld	r24, Z
    7aee:	8f 7e       	andi	r24, 0xEF	; 239
    7af0:	80 83       	st	Z, r24
					#if defined(USB_CAN_BE_DEVICE)
					case USB_INT_WAKEUPI:
						UDIEN  |= (1 << WAKEUPE);
						break;
					case USB_INT_SUSPI:
						UDIEN  |= (1 << SUSPE);
    7af2:	80 81       	ld	r24, Z
    7af4:	81 60       	ori	r24, 0x01	; 1
    7af6:	80 83       	st	Z, r24
		USB_INT_Clear(USB_INT_WAKEUPI);

		USB_INT_Disable(USB_INT_WAKEUPI);
		USB_INT_Enable(USB_INT_SUSPI);

		if (USB_Device_ConfigurationNumber)
    7af8:	80 91 01 02 	lds	r24, 0x0201
    7afc:	88 23       	and	r24, r24
    7afe:	19 f0       	breq	.+6      	; 0x7b06 <__vector_10+0xe6>
		  USB_DeviceState = DEVICE_STATE_Configured;
    7b00:	84 e0       	ldi	r24, 0x04	; 4
    7b02:	8e bb       	out	0x1e, r24	; 30
    7b04:	08 c0       	rjmp	.+16     	; 0x7b16 <__vector_10+0xf6>
			}

			static inline bool USB_Device_IsAddressSet(void) ATTR_ALWAYS_INLINE ATTR_WARN_UNUSED_RESULT;
			static inline bool USB_Device_IsAddressSet(void)
			{
				return (UDADDR & (1 << ADDEN));
    7b06:	80 91 e3 00 	lds	r24, 0x00E3
		else
		  USB_DeviceState = (USB_Device_IsAddressSet()) ? DEVICE_STATE_Addressed : DEVICE_STATE_Powered;
    7b0a:	88 23       	and	r24, r24
    7b0c:	14 f0       	brlt	.+4      	; 0x7b12 <__vector_10+0xf2>
    7b0e:	81 e0       	ldi	r24, 0x01	; 1
    7b10:	01 c0       	rjmp	.+2      	; 0x7b14 <__vector_10+0xf4>
    7b12:	83 e0       	ldi	r24, 0x03	; 3
    7b14:	8e bb       	out	0x1e, r24	; 30

		#if defined(USB_SERIES_2_AVR) && !defined(NO_LIMITED_CONTROLLER_CONNECT)
		EVENT_USB_Device_Connect();
		#else
		EVENT_USB_Device_WakeUp();
    7b16:	9d d1       	rcall	.+826    	; 0x7e52 <USB_Event_Stub>
					case USB_INT_WAKEUPI:
						return (UDINT  & (1 << WAKEUPI));
					case USB_INT_SUSPI:
						return (UDINT  & (1 << SUSPI));
					case USB_INT_EORSTI:
						return (UDINT  & (1 << EORSTI));
    7b18:	80 91 e1 00 	lds	r24, 0x00E1
		#endif
	}

	if (USB_INT_HasOccurred(USB_INT_EORSTI) && USB_INT_IsEnabled(USB_INT_EORSTI))
    7b1c:	83 ff       	sbrs	r24, 3
    7b1e:	22 c0       	rjmp	.+68     	; 0x7b64 <__vector_10+0x144>
					case USB_INT_WAKEUPI:
						return (UDIEN  & (1 << WAKEUPE));
					case USB_INT_SUSPI:
						return (UDIEN  & (1 << SUSPE));
					case USB_INT_EORSTI:
						return (UDIEN  & (1 << EORSTE));
    7b20:	80 91 e2 00 	lds	r24, 0x00E2
    7b24:	83 ff       	sbrs	r24, 3
    7b26:	1e c0       	rjmp	.+60     	; 0x7b64 <__vector_10+0x144>
						break;
					case USB_INT_SUSPI:
						UDINT  &= ~(1 << SUSPI);
						break;
					case USB_INT_EORSTI:
						UDINT  &= ~(1 << EORSTI);
    7b28:	e1 ee       	ldi	r30, 0xE1	; 225
    7b2a:	f0 e0       	ldi	r31, 0x00	; 0
    7b2c:	80 81       	ld	r24, Z
    7b2e:	87 7f       	andi	r24, 0xF7	; 247
    7b30:	80 83       	st	Z, r24
	{
		USB_INT_Clear(USB_INT_EORSTI);

		USB_DeviceState                = DEVICE_STATE_Default;
    7b32:	82 e0       	ldi	r24, 0x02	; 2
    7b34:	8e bb       	out	0x1e, r24	; 30
		USB_Device_ConfigurationNumber = 0;
    7b36:	10 92 01 02 	sts	0x0201, r1
					#if defined(USB_CAN_BE_DEVICE)
					case USB_INT_WAKEUPI:
						UDINT  &= ~(1 << WAKEUPI);
						break;
					case USB_INT_SUSPI:
						UDINT  &= ~(1 << SUSPI);
    7b3a:	80 81       	ld	r24, Z
    7b3c:	8e 7f       	andi	r24, 0xFE	; 254
    7b3e:	80 83       	st	Z, r24
					#if defined(USB_CAN_BE_DEVICE)
					case USB_INT_WAKEUPI:
						UDIEN  &= ~(1 << WAKEUPE);
						break;
					case USB_INT_SUSPI:
						UDIEN  &= ~(1 << SUSPE);
    7b40:	e2 ee       	ldi	r30, 0xE2	; 226
    7b42:	f0 e0       	ldi	r31, 0x00	; 0
    7b44:	80 81       	ld	r24, Z
    7b46:	8e 7f       	andi	r24, 0xFE	; 254
    7b48:	80 83       	st	Z, r24
						USBCON |= (1 << IDTE);
						break;
					#endif
					#if defined(USB_CAN_BE_DEVICE)
					case USB_INT_WAKEUPI:
						UDIEN  |= (1 << WAKEUPE);
    7b4a:	80 81       	ld	r24, Z
    7b4c:	80 61       	ori	r24, 0x10	; 16
    7b4e:	80 83       	st	Z, r24
				uint8_t Number = (Address & ENDPOINT_EPNUM_MASK);

				if (Number >= ENDPOINT_TOTAL_ENDPOINTS)
				  return false;

				return Endpoint_ConfigureEndpoint_Prv(Number,
    7b50:	42 e0       	ldi	r20, 0x02	; 2
    7b52:	60 e0       	ldi	r22, 0x00	; 0
    7b54:	80 e0       	ldi	r24, 0x00	; 0
    7b56:	2f de       	rcall	.-930    	; 0x77b6 <Endpoint_ConfigureEndpoint_Prv>
						break;
					case USB_INT_SOFI:
						UDIEN  |= (1 << SOFE);
						break;
					case USB_INT_RXSTPI:
						UEIENX |= (1 << RXSTPE);
    7b58:	e0 ef       	ldi	r30, 0xF0	; 240
    7b5a:	f0 e0       	ldi	r31, 0x00	; 0
    7b5c:	80 81       	ld	r24, Z
    7b5e:	88 60       	ori	r24, 0x08	; 8
    7b60:	80 83       	st	Z, r24

		#if defined(INTERRUPT_CONTROL_ENDPOINT)
		USB_INT_Enable(USB_INT_RXSTPI);
		#endif

		EVENT_USB_Device_Reset();
    7b62:	77 d1       	rcall	.+750    	; 0x7e52 <USB_Event_Stub>
		USB_ResetInterface();

		EVENT_USB_UIDChange();
	}
	#endif
}
    7b64:	ff 91       	pop	r31
    7b66:	ef 91       	pop	r30
    7b68:	bf 91       	pop	r27
    7b6a:	af 91       	pop	r26
    7b6c:	9f 91       	pop	r25
    7b6e:	8f 91       	pop	r24
    7b70:	7f 91       	pop	r23
    7b72:	6f 91       	pop	r22
    7b74:	5f 91       	pop	r21
    7b76:	4f 91       	pop	r20
    7b78:	3f 91       	pop	r19
    7b7a:	2f 91       	pop	r18
    7b7c:	0f 90       	pop	r0
    7b7e:	0f be       	out	0x3f, r0	; 63
    7b80:	0f 90       	pop	r0
    7b82:	1f 90       	pop	r1
    7b84:	18 95       	reti

00007b86 <__vector_11>:

#if defined(INTERRUPT_CONTROL_ENDPOINT) && defined(USB_CAN_BE_DEVICE)
ISR(USB_COM_vect, ISR_BLOCK)
{
    7b86:	1f 92       	push	r1
    7b88:	0f 92       	push	r0
    7b8a:	0f b6       	in	r0, 0x3f	; 63
    7b8c:	0f 92       	push	r0
    7b8e:	11 24       	eor	r1, r1
    7b90:	ef 92       	push	r14
    7b92:	ff 92       	push	r15
    7b94:	0f 93       	push	r16
    7b96:	1f 93       	push	r17
    7b98:	2f 93       	push	r18
    7b9a:	3f 93       	push	r19
    7b9c:	4f 93       	push	r20
    7b9e:	5f 93       	push	r21
    7ba0:	6f 93       	push	r22
    7ba2:	7f 93       	push	r23
    7ba4:	8f 93       	push	r24
    7ba6:	9f 93       	push	r25
    7ba8:	af 93       	push	r26
    7baa:	bf 93       	push	r27
    7bac:	cf 93       	push	r28
    7bae:	df 93       	push	r29
    7bb0:	ef 93       	push	r30
    7bb2:	ff 93       	push	r31
			 */
			static inline uint8_t Endpoint_GetCurrentEndpoint(void) ATTR_WARN_UNUSED_RESULT ATTR_ALWAYS_INLINE;
			static inline uint8_t Endpoint_GetCurrentEndpoint(void)
			{
				#if !defined(CONTROL_ONLY_DEVICE)
					return ((UENUM & ENDPOINT_EPNUM_MASK) | Endpoint_GetEndpointDirection());
    7bb4:	c0 91 e9 00 	lds	r28, 0x00E9
    7bb8:	cf 70       	andi	r28, 0x0F	; 15
			 *  \return The currently selected endpoint's direction, as a \c ENDPOINT_DIR_* mask.
			 */
			static inline uint8_t Endpoint_GetEndpointDirection(void) ATTR_WARN_UNUSED_RESULT ATTR_ALWAYS_INLINE;
			static inline uint8_t Endpoint_GetEndpointDirection(void)
			{
				return (UECFG0X & (1 << EPDIR)) ? ENDPOINT_DIR_IN : ENDPOINT_DIR_OUT;
    7bba:	80 91 ec 00 	lds	r24, 0x00EC
    7bbe:	d8 2f       	mov	r29, r24
    7bc0:	d1 70       	andi	r29, 0x01	; 1
    7bc2:	80 fd       	sbrc	r24, 0
    7bc4:	d0 e8       	ldi	r29, 0x80	; 128
			 */
			static inline void Endpoint_SelectEndpoint(const uint8_t Address) ATTR_ALWAYS_INLINE;
			static inline void Endpoint_SelectEndpoint(const uint8_t Address)
			{
				#if !defined(CONTROL_ONLY_DEVICE)
					UENUM = (Address & ENDPOINT_EPNUM_MASK);
    7bc6:	0f 2e       	mov	r0, r31
    7bc8:	f9 ee       	ldi	r31, 0xE9	; 233
    7bca:	ef 2e       	mov	r14, r31
    7bcc:	f1 2c       	mov	r15, r1
    7bce:	f0 2d       	mov	r31, r0
    7bd0:	f7 01       	movw	r30, r14
    7bd2:	10 82       	st	Z, r1
						break;
					case USB_INT_SOFI:
						UDIEN  &= ~(1 << SOFE);
						break;
					case USB_INT_RXSTPI:
						UEIENX &= ~(1 << RXSTPE);
    7bd4:	00 ef       	ldi	r16, 0xF0	; 240
    7bd6:	10 e0       	ldi	r17, 0x00	; 0
    7bd8:	f8 01       	movw	r30, r16
    7bda:	80 81       	ld	r24, Z
    7bdc:	87 7f       	andi	r24, 0xF7	; 247
    7bde:	80 83       	st	Z, r24
			static inline void GlobalInterruptEnable(void)
			{
				GCC_MEMORY_BARRIER();

				#if (ARCH == ARCH_AVR8)
				sei();
    7be0:	78 94       	sei
	Endpoint_SelectEndpoint(ENDPOINT_CONTROLEP);
	USB_INT_Disable(USB_INT_RXSTPI);

	GlobalInterruptEnable();

	USB_Device_ProcessControlRequest();
    7be2:	21 d0       	rcall	.+66     	; 0x7c26 <USB_Device_ProcessControlRequest>
    7be4:	f7 01       	movw	r30, r14
    7be6:	10 82       	st	Z, r1
						break;
					case USB_INT_SOFI:
						UDIEN  |= (1 << SOFE);
						break;
					case USB_INT_RXSTPI:
						UEIENX |= (1 << RXSTPE);
    7be8:	f8 01       	movw	r30, r16
    7bea:	80 81       	ld	r24, Z
    7bec:	88 60       	ori	r24, 0x08	; 8
    7bee:	80 83       	st	Z, r24
			 */
			static inline uint8_t Endpoint_GetCurrentEndpoint(void) ATTR_WARN_UNUSED_RESULT ATTR_ALWAYS_INLINE;
			static inline uint8_t Endpoint_GetCurrentEndpoint(void)
			{
				#if !defined(CONTROL_ONLY_DEVICE)
					return ((UENUM & ENDPOINT_EPNUM_MASK) | Endpoint_GetEndpointDirection());
    7bf0:	cd 2b       	or	r28, r29
			 */
			static inline void Endpoint_SelectEndpoint(const uint8_t Address) ATTR_ALWAYS_INLINE;
			static inline void Endpoint_SelectEndpoint(const uint8_t Address)
			{
				#if !defined(CONTROL_ONLY_DEVICE)
					UENUM = (Address & ENDPOINT_EPNUM_MASK);
    7bf2:	cf 70       	andi	r28, 0x0F	; 15
    7bf4:	f7 01       	movw	r30, r14
    7bf6:	c0 83       	st	Z, r28

	Endpoint_SelectEndpoint(ENDPOINT_CONTROLEP);
	USB_INT_Enable(USB_INT_RXSTPI);
	Endpoint_SelectEndpoint(PrevSelectedEndpoint);
}
    7bf8:	ff 91       	pop	r31
    7bfa:	ef 91       	pop	r30
    7bfc:	df 91       	pop	r29
    7bfe:	cf 91       	pop	r28
    7c00:	bf 91       	pop	r27
    7c02:	af 91       	pop	r26
    7c04:	9f 91       	pop	r25
    7c06:	8f 91       	pop	r24
    7c08:	7f 91       	pop	r23
    7c0a:	6f 91       	pop	r22
    7c0c:	5f 91       	pop	r21
    7c0e:	4f 91       	pop	r20
    7c10:	3f 91       	pop	r19
    7c12:	2f 91       	pop	r18
    7c14:	1f 91       	pop	r17
    7c16:	0f 91       	pop	r16
    7c18:	ff 90       	pop	r15
    7c1a:	ef 90       	pop	r14
    7c1c:	0f 90       	pop	r0
    7c1e:	0f be       	out	0x3f, r0	; 63
    7c20:	0f 90       	pop	r0
    7c22:	1f 90       	pop	r1
    7c24:	18 95       	reti

00007c26 <USB_Device_ProcessControlRequest>:
#if !defined(NO_DEVICE_REMOTE_WAKEUP)
bool    USB_Device_RemoteWakeupEnabled;
#endif

void USB_Device_ProcessControlRequest(void)
{
    7c26:	0f 93       	push	r16
    7c28:	1f 93       	push	r17
    7c2a:	cf 93       	push	r28
    7c2c:	df 93       	push	r29
    7c2e:	00 d0       	rcall	.+0      	; 0x7c30 <USB_Device_ProcessControlRequest+0xa>
    7c30:	cd b7       	in	r28, 0x3d	; 61
    7c32:	de b7       	in	r29, 0x3e	; 62
    7c34:	e3 e0       	ldi	r30, 0x03	; 3
    7c36:	f2 e0       	ldi	r31, 0x02	; 2
    7c38:	2b e0       	ldi	r18, 0x0B	; 11
    7c3a:	32 e0       	ldi	r19, 0x02	; 2
			 *  \return Next byte in the currently selected endpoint's FIFO buffer.
			 */
			static inline uint8_t Endpoint_Read_8(void) ATTR_WARN_UNUSED_RESULT ATTR_ALWAYS_INLINE;
			static inline uint8_t Endpoint_Read_8(void)
			{
				return UEDATX;
    7c3c:	a1 ef       	ldi	r26, 0xF1	; 241
    7c3e:	b0 e0       	ldi	r27, 0x00	; 0
    7c40:	8c 91       	ld	r24, X
	USB_ControlRequest.wLength       = Endpoint_Read_16_LE();
	#else
	uint8_t* RequestHeader = (uint8_t*)&USB_ControlRequest;

	for (uint8_t RequestHeaderByte = 0; RequestHeaderByte < sizeof(USB_Request_Header_t); RequestHeaderByte++)
	  *(RequestHeader++) = Endpoint_Read_8();
    7c42:	81 93       	st	Z+, r24
	USB_ControlRequest.wIndex        = Endpoint_Read_16_LE();
	USB_ControlRequest.wLength       = Endpoint_Read_16_LE();
	#else
	uint8_t* RequestHeader = (uint8_t*)&USB_ControlRequest;

	for (uint8_t RequestHeaderByte = 0; RequestHeaderByte < sizeof(USB_Request_Header_t); RequestHeaderByte++)
    7c44:	e2 17       	cp	r30, r18
    7c46:	f3 07       	cpc	r31, r19
    7c48:	d9 f7       	brne	.-10     	; 0x7c40 <USB_Device_ProcessControlRequest+0x1a>
	  *(RequestHeader++) = Endpoint_Read_8();
	#endif

	EVENT_USB_Device_ControlRequest();
    7c4a:	0e 94 4e 34 	call	0x689c	; 0x689c <EVENT_USB_Device_ControlRequest>
			 *  \return Boolean \c true if the selected endpoint has received a SETUP packet, \c false otherwise.
			 */
			static inline bool Endpoint_IsSETUPReceived(void) ATTR_WARN_UNUSED_RESULT ATTR_ALWAYS_INLINE;
			static inline bool Endpoint_IsSETUPReceived(void)
			{
				return ((UEINTX & (1 << RXSTPI)) ? true : false);
    7c4e:	80 91 e8 00 	lds	r24, 0x00E8

	if (Endpoint_IsSETUPReceived())
    7c52:	83 ff       	sbrs	r24, 3
    7c54:	e2 c0       	rjmp	.+452    	; 0x7e1a <USB_Device_ProcessControlRequest+0x1f4>
	{
		uint8_t bmRequestType = USB_ControlRequest.bmRequestType;
    7c56:	e3 e0       	ldi	r30, 0x03	; 3
    7c58:	f2 e0       	ldi	r31, 0x02	; 2
    7c5a:	90 81       	ld	r25, Z

		switch (USB_ControlRequest.bRequest)
    7c5c:	81 81       	ldd	r24, Z+1	; 0x01
    7c5e:	85 30       	cpi	r24, 0x05	; 5
    7c60:	09 f4       	brne	.+2      	; 0x7c64 <USB_Device_ProcessControlRequest+0x3e>
    7c62:	68 c0       	rjmp	.+208    	; 0x7d34 <USB_Device_ProcessControlRequest+0x10e>
    7c64:	30 f4       	brcc	.+12     	; 0x7c72 <USB_Device_ProcessControlRequest+0x4c>
    7c66:	81 30       	cpi	r24, 0x01	; 1
    7c68:	79 f1       	breq	.+94     	; 0x7cc8 <USB_Device_ProcessControlRequest+0xa2>
    7c6a:	68 f0       	brcs	.+26     	; 0x7c86 <USB_Device_ProcessControlRequest+0x60>
    7c6c:	83 30       	cpi	r24, 0x03	; 3
    7c6e:	61 f1       	breq	.+88     	; 0x7cc8 <USB_Device_ProcessControlRequest+0xa2>
    7c70:	d4 c0       	rjmp	.+424    	; 0x7e1a <USB_Device_ProcessControlRequest+0x1f4>
    7c72:	88 30       	cpi	r24, 0x08	; 8
    7c74:	09 f4       	brne	.+2      	; 0x7c78 <USB_Device_ProcessControlRequest+0x52>
    7c76:	a0 c0       	rjmp	.+320    	; 0x7db8 <USB_Device_ProcessControlRequest+0x192>
    7c78:	89 30       	cpi	r24, 0x09	; 9
    7c7a:	09 f4       	brne	.+2      	; 0x7c7e <USB_Device_ProcessControlRequest+0x58>
    7c7c:	ad c0       	rjmp	.+346    	; 0x7dd8 <USB_Device_ProcessControlRequest+0x1b2>
    7c7e:	86 30       	cpi	r24, 0x06	; 6
    7c80:	09 f0       	breq	.+2      	; 0x7c84 <USB_Device_ProcessControlRequest+0x5e>
    7c82:	cb c0       	rjmp	.+406    	; 0x7e1a <USB_Device_ProcessControlRequest+0x1f4>
    7c84:	79 c0       	rjmp	.+242    	; 0x7d78 <USB_Device_ProcessControlRequest+0x152>
		{
			case REQ_GetStatus:
				if ((bmRequestType == (REQDIR_DEVICETOHOST | REQTYPE_STANDARD | REQREC_DEVICE)) ||
    7c86:	90 38       	cpi	r25, 0x80	; 128
    7c88:	81 f0       	breq	.+32     	; 0x7caa <USB_Device_ProcessControlRequest+0x84>
    7c8a:	92 38       	cpi	r25, 0x82	; 130
    7c8c:	09 f0       	breq	.+2      	; 0x7c90 <USB_Device_ProcessControlRequest+0x6a>
    7c8e:	c5 c0       	rjmp	.+394    	; 0x7e1a <USB_Device_ProcessControlRequest+0x1f4>
			 */
			static inline void Endpoint_SelectEndpoint(const uint8_t Address) ATTR_ALWAYS_INLINE;
			static inline void Endpoint_SelectEndpoint(const uint8_t Address)
			{
				#if !defined(CONTROL_ONLY_DEVICE)
					UENUM = (Address & ENDPOINT_EPNUM_MASK);
    7c90:	80 91 07 02 	lds	r24, 0x0207
    7c94:	8f 70       	andi	r24, 0x0F	; 15
    7c96:	e9 ee       	ldi	r30, 0xE9	; 233
    7c98:	f0 e0       	ldi	r31, 0x00	; 0
    7c9a:	80 83       	st	Z, r24
			 *  \return Boolean \c true if the currently selected endpoint is stalled, \c false otherwise.
			 */
			static inline bool Endpoint_IsStalled(void) ATTR_WARN_UNUSED_RESULT ATTR_ALWAYS_INLINE;
			static inline bool Endpoint_IsStalled(void)
			{
				return ((UECONX & (1 << STALLRQ)) ? true : false);
    7c9c:	90 91 eb 00 	lds	r25, 0x00EB
    7ca0:	95 fb       	bst	r25, 5
    7ca2:	99 27       	eor	r25, r25
    7ca4:	90 f9       	bld	r25, 0
			 */
			static inline void Endpoint_SelectEndpoint(const uint8_t Address) ATTR_ALWAYS_INLINE;
			static inline void Endpoint_SelectEndpoint(const uint8_t Address)
			{
				#if !defined(CONTROL_ONLY_DEVICE)
					UENUM = (Address & ENDPOINT_EPNUM_MASK);
    7ca6:	10 82       	st	Z, r1
    7ca8:	01 c0       	rjmp	.+2      	; 0x7cac <USB_Device_ProcessControlRequest+0x86>
	Endpoint_ClearOUT();
}

static void USB_Device_GetStatus(void)
{
	uint8_t CurrentStatus = 0;
    7caa:	90 e0       	ldi	r25, 0x00	; 0
			 *  \note This is not applicable for non CONTROL type endpoints.
			 */
			static inline void Endpoint_ClearSETUP(void) ATTR_ALWAYS_INLINE;
			static inline void Endpoint_ClearSETUP(void)
			{
				UEINTX &= ~(1 << RXSTPI);
    7cac:	e8 ee       	ldi	r30, 0xE8	; 232
    7cae:	f0 e0       	ldi	r31, 0x00	; 0
    7cb0:	80 81       	ld	r24, Z
    7cb2:	87 7f       	andi	r24, 0xF7	; 247
    7cb4:	80 83       	st	Z, r24
			 *  \param[in] Data  Data to write to the currently selected endpoint's FIFO buffer.
			 */
			static inline void Endpoint_Write_16_LE(const uint16_t Data) ATTR_ALWAYS_INLINE;
			static inline void Endpoint_Write_16_LE(const uint16_t Data)
			{
				UEDATX = (Data & 0xFF);
    7cb6:	a1 ef       	ldi	r26, 0xF1	; 241
    7cb8:	b0 e0       	ldi	r27, 0x00	; 0
    7cba:	9c 93       	st	X, r25
				UEDATX = (Data >> 8);
    7cbc:	1c 92       	st	X, r1
			 */
			static inline void Endpoint_ClearIN(void) ATTR_ALWAYS_INLINE;
			static inline void Endpoint_ClearIN(void)
			{
				#if !defined(CONTROL_ONLY_DEVICE)
					UEINTX &= ~((1 << TXINI) | (1 << FIFOCON));
    7cbe:	80 81       	ld	r24, Z
    7cc0:	8e 77       	andi	r24, 0x7E	; 126
    7cc2:	80 83       	st	Z, r24
	Endpoint_ClearSETUP();

	Endpoint_Write_16_LE(CurrentStatus);
	Endpoint_ClearIN();

	Endpoint_ClearStatusStage();
    7cc4:	f2 dd       	rcall	.-1052   	; 0x78aa <Endpoint_ClearStatusStage>
    7cc6:	a9 c0       	rjmp	.+338    	; 0x7e1a <USB_Device_ProcessControlRequest+0x1f4>
				}

				break;
			case REQ_ClearFeature:
			case REQ_SetFeature:
				if ((bmRequestType == (REQDIR_HOSTTODEVICE | REQTYPE_STANDARD | REQREC_DEVICE)) ||
    7cc8:	92 30       	cpi	r25, 0x02	; 2
    7cca:	09 f4       	brne	.+2      	; 0x7cce <USB_Device_ProcessControlRequest+0xa8>
    7ccc:	b5 c0       	rjmp	.+362    	; 0x7e38 <USB_Device_ProcessControlRequest+0x212>
    7cce:	a5 c0       	rjmp	.+330    	; 0x7e1a <USB_Device_ProcessControlRequest+0x1f4>
		#endif
		#if !defined(CONTROL_ONLY_DEVICE)
		case REQREC_ENDPOINT:
			if ((uint8_t)USB_ControlRequest.wValue == FEATURE_SEL_EndpointHalt)
			{
				uint8_t EndpointIndex = ((uint8_t)USB_ControlRequest.wIndex & ENDPOINT_EPNUM_MASK);
    7cd0:	80 91 07 02 	lds	r24, 0x0207
    7cd4:	8f 70       	andi	r24, 0x0F	; 15

				if (EndpointIndex == ENDPOINT_CONTROLEP)
    7cd6:	09 f4       	brne	.+2      	; 0x7cda <USB_Device_ProcessControlRequest+0xb4>
    7cd8:	a0 c0       	rjmp	.+320    	; 0x7e1a <USB_Device_ProcessControlRequest+0x1f4>
			 */
			static inline void Endpoint_SelectEndpoint(const uint8_t Address) ATTR_ALWAYS_INLINE;
			static inline void Endpoint_SelectEndpoint(const uint8_t Address)
			{
				#if !defined(CONTROL_ONLY_DEVICE)
					UENUM = (Address & ENDPOINT_EPNUM_MASK);
    7cda:	80 93 e9 00 	sts	0x00E9, r24
			 * \return Boolean \c true if the currently selected endpoint is enabled, \c false otherwise.
			 */
			static inline bool Endpoint_IsEnabled(void) ATTR_WARN_UNUSED_RESULT ATTR_ALWAYS_INLINE;
			static inline bool Endpoint_IsEnabled(void)
			{
				return ((UECONX & (1 << EPEN)) ? true : false);
    7cde:	90 91 eb 00 	lds	r25, 0x00EB
				  return;

				Endpoint_SelectEndpoint(EndpointIndex);

				if (Endpoint_IsEnabled())
    7ce2:	90 ff       	sbrs	r25, 0
    7ce4:	1e c0       	rjmp	.+60     	; 0x7d22 <USB_Device_ProcessControlRequest+0xfc>
				{
					if (USB_ControlRequest.bRequest == REQ_SetFeature)
    7ce6:	90 91 04 02 	lds	r25, 0x0204
    7cea:	93 30       	cpi	r25, 0x03	; 3
    7cec:	31 f4       	brne	.+12     	; 0x7cfa <USB_Device_ProcessControlRequest+0xd4>
			 *  \ingroup Group_EndpointPacketManagement_AVR8
			 */
			static inline void Endpoint_StallTransaction(void) ATTR_ALWAYS_INLINE;
			static inline void Endpoint_StallTransaction(void)
			{
				UECONX |= (1 << STALLRQ);
    7cee:	eb ee       	ldi	r30, 0xEB	; 235
    7cf0:	f0 e0       	ldi	r31, 0x00	; 0
    7cf2:	80 81       	ld	r24, Z
    7cf4:	80 62       	ori	r24, 0x20	; 32
    7cf6:	80 83       	st	Z, r24
    7cf8:	14 c0       	rjmp	.+40     	; 0x7d22 <USB_Device_ProcessControlRequest+0xfc>
			 *  \ingroup Group_EndpointPacketManagement_AVR8
			 */
			static inline void Endpoint_ClearStall(void) ATTR_ALWAYS_INLINE;
			static inline void Endpoint_ClearStall(void)
			{
				UECONX |= (1 << STALLRQC);
    7cfa:	eb ee       	ldi	r30, 0xEB	; 235
    7cfc:	f0 e0       	ldi	r31, 0x00	; 0
    7cfe:	90 81       	ld	r25, Z
    7d00:	90 61       	ori	r25, 0x10	; 16
    7d02:	90 83       	st	Z, r25
			 *  \param[in] Address  Endpoint address whose FIFO buffers are to be reset.
			 */
			static inline void Endpoint_ResetEndpoint(const uint8_t Address) ATTR_ALWAYS_INLINE;
			static inline void Endpoint_ResetEndpoint(const uint8_t Address)
			{
				UERST = (1 << (Address & ENDPOINT_EPNUM_MASK));
    7d04:	21 e0       	ldi	r18, 0x01	; 1
    7d06:	30 e0       	ldi	r19, 0x00	; 0
    7d08:	a9 01       	movw	r20, r18
    7d0a:	02 c0       	rjmp	.+4      	; 0x7d10 <USB_Device_ProcessControlRequest+0xea>
    7d0c:	44 0f       	add	r20, r20
    7d0e:	55 1f       	adc	r21, r21
    7d10:	8a 95       	dec	r24
    7d12:	e2 f7       	brpl	.-8      	; 0x7d0c <USB_Device_ProcessControlRequest+0xe6>
    7d14:	aa ee       	ldi	r26, 0xEA	; 234
    7d16:	b0 e0       	ldi	r27, 0x00	; 0
    7d18:	4c 93       	st	X, r20
				UERST = 0;
    7d1a:	1c 92       	st	X, r1

			/** Resets the data toggle of the currently selected endpoint. */
			static inline void Endpoint_ResetDataToggle(void) ATTR_ALWAYS_INLINE;
			static inline void Endpoint_ResetDataToggle(void)
			{
				UECONX |= (1 << RSTDT);
    7d1c:	80 81       	ld	r24, Z
    7d1e:	88 60       	ori	r24, 0x08	; 8
    7d20:	80 83       	st	Z, r24
			 */
			static inline void Endpoint_SelectEndpoint(const uint8_t Address) ATTR_ALWAYS_INLINE;
			static inline void Endpoint_SelectEndpoint(const uint8_t Address)
			{
				#if !defined(CONTROL_ONLY_DEVICE)
					UENUM = (Address & ENDPOINT_EPNUM_MASK);
    7d22:	10 92 e9 00 	sts	0x00E9, r1
			 *  \note This is not applicable for non CONTROL type endpoints.
			 */
			static inline void Endpoint_ClearSETUP(void) ATTR_ALWAYS_INLINE;
			static inline void Endpoint_ClearSETUP(void)
			{
				UEINTX &= ~(1 << RXSTPI);
    7d26:	e8 ee       	ldi	r30, 0xE8	; 232
    7d28:	f0 e0       	ldi	r31, 0x00	; 0
    7d2a:	80 81       	ld	r24, Z
    7d2c:	87 7f       	andi	r24, 0xF7	; 247
    7d2e:	80 83       	st	Z, r24

	Endpoint_SelectEndpoint(ENDPOINT_CONTROLEP);

	Endpoint_ClearSETUP();

	Endpoint_ClearStatusStage();
    7d30:	bc dd       	rcall	.-1160   	; 0x78aa <Endpoint_ClearStatusStage>
    7d32:	73 c0       	rjmp	.+230    	; 0x7e1a <USB_Device_ProcessControlRequest+0x1f4>
					USB_Device_ClearSetFeature();
				}

				break;
			case REQ_SetAddress:
				if (bmRequestType == (REQDIR_HOSTTODEVICE | REQTYPE_STANDARD | REQREC_DEVICE))
    7d34:	91 11       	cpse	r25, r1
    7d36:	71 c0       	rjmp	.+226    	; 0x7e1a <USB_Device_ProcessControlRequest+0x1f4>
	}
}

static void USB_Device_SetAddress(void)
{
	uint8_t DeviceAddress = (USB_ControlRequest.wValue & 0x7F);
    7d38:	10 91 05 02 	lds	r17, 0x0205
    7d3c:	1f 77       	andi	r17, 0x7F	; 127
			#endif

			static inline void USB_Device_SetDeviceAddress(const uint8_t Address) ATTR_ALWAYS_INLINE;
			static inline void USB_Device_SetDeviceAddress(const uint8_t Address)
			{
				UDADDR = (UDADDR & (1 << ADDEN)) | (Address & 0x7F);
    7d3e:	e3 ee       	ldi	r30, 0xE3	; 227
    7d40:	f0 e0       	ldi	r31, 0x00	; 0
    7d42:	80 81       	ld	r24, Z
    7d44:	80 78       	andi	r24, 0x80	; 128
    7d46:	81 2b       	or	r24, r17
    7d48:	80 83       	st	Z, r24
    7d4a:	e8 ee       	ldi	r30, 0xE8	; 232
    7d4c:	f0 e0       	ldi	r31, 0x00	; 0
    7d4e:	80 81       	ld	r24, Z
    7d50:	87 7f       	andi	r24, 0xF7	; 247
    7d52:	80 83       	st	Z, r24

	USB_Device_SetDeviceAddress(DeviceAddress);

	Endpoint_ClearSETUP();

	Endpoint_ClearStatusStage();
    7d54:	aa dd       	rcall	.-1196   	; 0x78aa <Endpoint_ClearStatusStage>
			 *  \return Boolean \c true if the current endpoint is ready for an IN packet, \c false otherwise.
			 */
			static inline bool Endpoint_IsINReady(void) ATTR_WARN_UNUSED_RESULT ATTR_ALWAYS_INLINE;
			static inline bool Endpoint_IsINReady(void)
			{
				return ((UEINTX & (1 << TXINI)) ? true : false);
    7d56:	e8 ee       	ldi	r30, 0xE8	; 232
    7d58:	f0 e0       	ldi	r31, 0x00	; 0
    7d5a:	80 81       	ld	r24, Z

	while (!(Endpoint_IsINReady()));
    7d5c:	80 ff       	sbrs	r24, 0
    7d5e:	fd cf       	rjmp	.-6      	; 0x7d5a <USB_Device_ProcessControlRequest+0x134>
			static inline void USB_Device_EnableDeviceAddress(const uint8_t Address) ATTR_ALWAYS_INLINE;
			static inline void USB_Device_EnableDeviceAddress(const uint8_t Address)
			{
				(void)Address;

				UDADDR |= (1 << ADDEN);
    7d60:	e3 ee       	ldi	r30, 0xE3	; 227
    7d62:	f0 e0       	ldi	r31, 0x00	; 0
    7d64:	80 81       	ld	r24, Z
    7d66:	80 68       	ori	r24, 0x80	; 128
    7d68:	80 83       	st	Z, r24

	USB_Device_EnableDeviceAddress(DeviceAddress);

	USB_DeviceState = (DeviceAddress) ? DEVICE_STATE_Addressed : DEVICE_STATE_Default;
    7d6a:	11 11       	cpse	r17, r1
    7d6c:	02 c0       	rjmp	.+4      	; 0x7d72 <USB_Device_ProcessControlRequest+0x14c>
    7d6e:	82 e0       	ldi	r24, 0x02	; 2
    7d70:	01 c0       	rjmp	.+2      	; 0x7d74 <USB_Device_ProcessControlRequest+0x14e>
    7d72:	83 e0       	ldi	r24, 0x03	; 3
    7d74:	8e bb       	out	0x1e, r24	; 30
    7d76:	51 c0       	rjmp	.+162    	; 0x7e1a <USB_Device_ProcessControlRequest+0x1f4>
				if (bmRequestType == (REQDIR_HOSTTODEVICE | REQTYPE_STANDARD | REQREC_DEVICE))
				  USB_Device_SetAddress();

				break;
			case REQ_GetDescriptor:
				if ((bmRequestType == (REQDIR_DEVICETOHOST | REQTYPE_STANDARD | REQREC_DEVICE)) ||
    7d78:	90 58       	subi	r25, 0x80	; 128
    7d7a:	92 30       	cpi	r25, 0x02	; 2
    7d7c:	08 f0       	brcs	.+2      	; 0x7d80 <USB_Device_ProcessControlRequest+0x15a>
    7d7e:	4d c0       	rjmp	.+154    	; 0x7e1a <USB_Device_ProcessControlRequest+0x1f4>
		USB_Device_GetInternalSerialDescriptor();
		return;
	}
	#endif

	if ((DescriptorSize = CALLBACK_USB_GetDescriptor(USB_ControlRequest.wValue, USB_ControlRequest.wIndex,
    7d80:	e3 e0       	ldi	r30, 0x03	; 3
    7d82:	f2 e0       	ldi	r31, 0x02	; 2
    7d84:	ae 01       	movw	r20, r28
    7d86:	4f 5f       	subi	r20, 0xFF	; 255
    7d88:	5f 4f       	sbci	r21, 0xFF	; 255
    7d8a:	64 81       	ldd	r22, Z+4	; 0x04
    7d8c:	82 81       	ldd	r24, Z+2	; 0x02
    7d8e:	93 81       	ldd	r25, Z+3	; 0x03
    7d90:	0e 94 56 34 	call	0x68ac	; 0x68ac <CALLBACK_USB_GetDescriptor>
    7d94:	bc 01       	movw	r22, r24
    7d96:	89 2b       	or	r24, r25
    7d98:	09 f4       	brne	.+2      	; 0x7d9c <USB_Device_ProcessControlRequest+0x176>
    7d9a:	3f c0       	rjmp	.+126    	; 0x7e1a <USB_Device_ProcessControlRequest+0x1f4>
			 *  \note This is not applicable for non CONTROL type endpoints.
			 */
			static inline void Endpoint_ClearSETUP(void) ATTR_ALWAYS_INLINE;
			static inline void Endpoint_ClearSETUP(void)
			{
				UEINTX &= ~(1 << RXSTPI);
    7d9c:	08 ee       	ldi	r16, 0xE8	; 232
    7d9e:	10 e0       	ldi	r17, 0x00	; 0
    7da0:	f8 01       	movw	r30, r16
    7da2:	90 81       	ld	r25, Z
    7da4:	97 7f       	andi	r25, 0xF7	; 247
    7da6:	90 83       	st	Z, r25
	}

	Endpoint_ClearSETUP();

	#if defined(USE_RAM_DESCRIPTORS) || !defined(ARCH_HAS_MULTI_ADDRESS_SPACE)
	Endpoint_Write_Control_Stream_LE(DescriptorPointer, DescriptorSize);
    7da8:	89 81       	ldd	r24, Y+1	; 0x01
    7daa:	9a 81       	ldd	r25, Y+2	; 0x02
    7dac:	82 dc       	rcall	.-1788   	; 0x76b2 <Endpoint_Write_Control_Stream_LE>
			 */
			static inline void Endpoint_ClearOUT(void) ATTR_ALWAYS_INLINE;
			static inline void Endpoint_ClearOUT(void)
			{
				#if !defined(CONTROL_ONLY_DEVICE)
					UEINTX &= ~((1 << RXOUTI) | (1 << FIFOCON));
    7dae:	f8 01       	movw	r30, r16
    7db0:	80 81       	ld	r24, Z
    7db2:	8b 77       	andi	r24, 0x7B	; 123
    7db4:	80 83       	st	Z, r24
    7db6:	31 c0       	rjmp	.+98     	; 0x7e1a <USB_Device_ProcessControlRequest+0x1f4>
					USB_Device_GetDescriptor();
				}

				break;
			case REQ_GetConfiguration:
				if (bmRequestType == (REQDIR_DEVICETOHOST | REQTYPE_STANDARD | REQREC_DEVICE))
    7db8:	90 38       	cpi	r25, 0x80	; 128
    7dba:	79 f5       	brne	.+94     	; 0x7e1a <USB_Device_ProcessControlRequest+0x1f4>
			 *  \note This is not applicable for non CONTROL type endpoints.
			 */
			static inline void Endpoint_ClearSETUP(void) ATTR_ALWAYS_INLINE;
			static inline void Endpoint_ClearSETUP(void)
			{
				UEINTX &= ~(1 << RXSTPI);
    7dbc:	e8 ee       	ldi	r30, 0xE8	; 232
    7dbe:	f0 e0       	ldi	r31, 0x00	; 0
    7dc0:	80 81       	ld	r24, Z
    7dc2:	87 7f       	andi	r24, 0xF7	; 247
    7dc4:	80 83       	st	Z, r24

static void USB_Device_GetConfiguration(void)
{
	Endpoint_ClearSETUP();

	Endpoint_Write_8(USB_Device_ConfigurationNumber);
    7dc6:	80 91 01 02 	lds	r24, 0x0201
			 *  \param[in] Data  Data to write into the the currently selected endpoint's FIFO buffer.
			 */
			static inline void Endpoint_Write_8(const uint8_t Data) ATTR_ALWAYS_INLINE;
			static inline void Endpoint_Write_8(const uint8_t Data)
			{
				UEDATX = Data;
    7dca:	80 93 f1 00 	sts	0x00F1, r24
			 */
			static inline void Endpoint_ClearIN(void) ATTR_ALWAYS_INLINE;
			static inline void Endpoint_ClearIN(void)
			{
				#if !defined(CONTROL_ONLY_DEVICE)
					UEINTX &= ~((1 << TXINI) | (1 << FIFOCON));
    7dce:	80 81       	ld	r24, Z
    7dd0:	8e 77       	andi	r24, 0x7E	; 126
    7dd2:	80 83       	st	Z, r24
	Endpoint_ClearIN();

	Endpoint_ClearStatusStage();
    7dd4:	6a dd       	rcall	.-1324   	; 0x78aa <Endpoint_ClearStatusStage>
    7dd6:	21 c0       	rjmp	.+66     	; 0x7e1a <USB_Device_ProcessControlRequest+0x1f4>
				if (bmRequestType == (REQDIR_DEVICETOHOST | REQTYPE_STANDARD | REQREC_DEVICE))
				  USB_Device_GetConfiguration();

				break;
			case REQ_SetConfiguration:
				if (bmRequestType == (REQDIR_HOSTTODEVICE | REQTYPE_STANDARD | REQREC_DEVICE))
    7dd8:	91 11       	cpse	r25, r1
    7dda:	1f c0       	rjmp	.+62     	; 0x7e1a <USB_Device_ProcessControlRequest+0x1f4>
}

static void USB_Device_SetConfiguration(void)
{
	#if defined(FIXED_NUM_CONFIGURATIONS)
	if ((uint8_t)USB_ControlRequest.wValue > FIXED_NUM_CONFIGURATIONS)
    7ddc:	80 91 05 02 	lds	r24, 0x0205
    7de0:	82 30       	cpi	r24, 0x02	; 2
    7de2:	d8 f4       	brcc	.+54     	; 0x7e1a <USB_Device_ProcessControlRequest+0x1f4>
			 *  \note This is not applicable for non CONTROL type endpoints.
			 */
			static inline void Endpoint_ClearSETUP(void) ATTR_ALWAYS_INLINE;
			static inline void Endpoint_ClearSETUP(void)
			{
				UEINTX &= ~(1 << RXSTPI);
    7de4:	e8 ee       	ldi	r30, 0xE8	; 232
    7de6:	f0 e0       	ldi	r31, 0x00	; 0
    7de8:	80 81       	ld	r24, Z
    7dea:	87 7f       	andi	r24, 0xF7	; 247
    7dec:	80 83       	st	Z, r24
	#endif
	#endif

	Endpoint_ClearSETUP();

	USB_Device_ConfigurationNumber = (uint8_t)USB_ControlRequest.wValue;
    7dee:	80 91 05 02 	lds	r24, 0x0205
    7df2:	80 93 01 02 	sts	0x0201, r24

	Endpoint_ClearStatusStage();
    7df6:	59 dd       	rcall	.-1358   	; 0x78aa <Endpoint_ClearStatusStage>

	if (USB_Device_ConfigurationNumber)
    7df8:	80 91 01 02 	lds	r24, 0x0201
    7dfc:	88 23       	and	r24, r24
    7dfe:	19 f0       	breq	.+6      	; 0x7e06 <USB_Device_ProcessControlRequest+0x1e0>
	  USB_DeviceState = DEVICE_STATE_Configured;
    7e00:	84 e0       	ldi	r24, 0x04	; 4
    7e02:	8e bb       	out	0x1e, r24	; 30
    7e04:	08 c0       	rjmp	.+16     	; 0x7e16 <USB_Device_ProcessControlRequest+0x1f0>
			}

			static inline bool USB_Device_IsAddressSet(void) ATTR_ALWAYS_INLINE ATTR_WARN_UNUSED_RESULT;
			static inline bool USB_Device_IsAddressSet(void)
			{
				return (UDADDR & (1 << ADDEN));
    7e06:	80 91 e3 00 	lds	r24, 0x00E3
	else
	  USB_DeviceState = (USB_Device_IsAddressSet()) ? DEVICE_STATE_Configured : DEVICE_STATE_Powered;
    7e0a:	88 23       	and	r24, r24
    7e0c:	14 f0       	brlt	.+4      	; 0x7e12 <USB_Device_ProcessControlRequest+0x1ec>
    7e0e:	81 e0       	ldi	r24, 0x01	; 1
    7e10:	01 c0       	rjmp	.+2      	; 0x7e14 <USB_Device_ProcessControlRequest+0x1ee>
    7e12:	84 e0       	ldi	r24, 0x04	; 4
    7e14:	8e bb       	out	0x1e, r24	; 30

	EVENT_USB_Device_ConfigurationChanged();
    7e16:	0e 94 4a 34 	call	0x6894	; 0x6894 <EVENT_USB_Device_ConfigurationChanged>
			 *  \return Boolean \c true if the selected endpoint has received a SETUP packet, \c false otherwise.
			 */
			static inline bool Endpoint_IsSETUPReceived(void) ATTR_WARN_UNUSED_RESULT ATTR_ALWAYS_INLINE;
			static inline bool Endpoint_IsSETUPReceived(void)
			{
				return ((UEINTX & (1 << RXSTPI)) ? true : false);
    7e1a:	80 91 e8 00 	lds	r24, 0x00E8
			default:
				break;
		}
	}

	if (Endpoint_IsSETUPReceived())
    7e1e:	83 ff       	sbrs	r24, 3
    7e20:	11 c0       	rjmp	.+34     	; 0x7e44 <USB_Device_ProcessControlRequest+0x21e>
			 *  \note This is not applicable for non CONTROL type endpoints.
			 */
			static inline void Endpoint_ClearSETUP(void) ATTR_ALWAYS_INLINE;
			static inline void Endpoint_ClearSETUP(void)
			{
				UEINTX &= ~(1 << RXSTPI);
    7e22:	e8 ee       	ldi	r30, 0xE8	; 232
    7e24:	f0 e0       	ldi	r31, 0x00	; 0
    7e26:	80 81       	ld	r24, Z
    7e28:	87 7f       	andi	r24, 0xF7	; 247
    7e2a:	80 83       	st	Z, r24
			 *  \ingroup Group_EndpointPacketManagement_AVR8
			 */
			static inline void Endpoint_StallTransaction(void) ATTR_ALWAYS_INLINE;
			static inline void Endpoint_StallTransaction(void)
			{
				UECONX |= (1 << STALLRQ);
    7e2c:	eb ee       	ldi	r30, 0xEB	; 235
    7e2e:	f0 e0       	ldi	r31, 0x00	; 0
    7e30:	80 81       	ld	r24, Z
    7e32:	80 62       	ori	r24, 0x20	; 32
    7e34:	80 83       	st	Z, r24
    7e36:	06 c0       	rjmp	.+12     	; 0x7e44 <USB_Device_ProcessControlRequest+0x21e>

			break;
		#endif
		#if !defined(CONTROL_ONLY_DEVICE)
		case REQREC_ENDPOINT:
			if ((uint8_t)USB_ControlRequest.wValue == FEATURE_SEL_EndpointHalt)
    7e38:	80 91 05 02 	lds	r24, 0x0205
    7e3c:	88 23       	and	r24, r24
    7e3e:	09 f4       	brne	.+2      	; 0x7e42 <USB_Device_ProcessControlRequest+0x21c>
    7e40:	47 cf       	rjmp	.-370    	; 0x7cd0 <USB_Device_ProcessControlRequest+0xaa>
    7e42:	6f cf       	rjmp	.-290    	; 0x7d22 <USB_Device_ProcessControlRequest+0xfc>
	if (Endpoint_IsSETUPReceived())
	{
		Endpoint_ClearSETUP();
		Endpoint_StallTransaction();
	}
}
    7e44:	0f 90       	pop	r0
    7e46:	0f 90       	pop	r0
    7e48:	df 91       	pop	r29
    7e4a:	cf 91       	pop	r28
    7e4c:	1f 91       	pop	r17
    7e4e:	0f 91       	pop	r16
    7e50:	08 95       	ret

00007e52 <USB_Event_Stub>:
#define  __INCLUDE_FROM_EVENTS_C
#define  __INCLUDE_FROM_USB_DRIVER
#include "Events.h"

void USB_Event_Stub(void)
{
    7e52:	08 95       	ret

00007e54 <USB_USBTask>:
#if defined(USB_CAN_BE_DEVICE) && !defined(DEVICE_STATE_AS_GPIOR)
volatile uint8_t     USB_DeviceState;
#endif

void USB_USBTask(void)
{
    7e54:	cf 93       	push	r28
}

#if defined(USB_CAN_BE_DEVICE)
static void USB_DeviceTask(void)
{
	if (USB_DeviceState == DEVICE_STATE_Unattached)
    7e56:	8e b3       	in	r24, 0x1e	; 30
    7e58:	88 23       	and	r24, r24
    7e5a:	99 f0       	breq	.+38     	; 0x7e82 <USB_USBTask+0x2e>
			 */
			static inline uint8_t Endpoint_GetCurrentEndpoint(void) ATTR_WARN_UNUSED_RESULT ATTR_ALWAYS_INLINE;
			static inline uint8_t Endpoint_GetCurrentEndpoint(void)
			{
				#if !defined(CONTROL_ONLY_DEVICE)
					return ((UENUM & ENDPOINT_EPNUM_MASK) | Endpoint_GetEndpointDirection());
    7e5c:	c0 91 e9 00 	lds	r28, 0x00E9
    7e60:	cf 70       	andi	r28, 0x0F	; 15
			 *  \return The currently selected endpoint's direction, as a \c ENDPOINT_DIR_* mask.
			 */
			static inline uint8_t Endpoint_GetEndpointDirection(void) ATTR_WARN_UNUSED_RESULT ATTR_ALWAYS_INLINE;
			static inline uint8_t Endpoint_GetEndpointDirection(void)
			{
				return (UECFG0X & (1 << EPDIR)) ? ENDPOINT_DIR_IN : ENDPOINT_DIR_OUT;
    7e62:	80 91 ec 00 	lds	r24, 0x00EC
    7e66:	98 2f       	mov	r25, r24
    7e68:	91 70       	andi	r25, 0x01	; 1
    7e6a:	80 fd       	sbrc	r24, 0
    7e6c:	90 e8       	ldi	r25, 0x80	; 128
			 */
			static inline uint8_t Endpoint_GetCurrentEndpoint(void) ATTR_WARN_UNUSED_RESULT ATTR_ALWAYS_INLINE;
			static inline uint8_t Endpoint_GetCurrentEndpoint(void)
			{
				#if !defined(CONTROL_ONLY_DEVICE)
					return ((UENUM & ENDPOINT_EPNUM_MASK) | Endpoint_GetEndpointDirection());
    7e6e:	c9 2b       	or	r28, r25
			 */
			static inline void Endpoint_SelectEndpoint(const uint8_t Address) ATTR_ALWAYS_INLINE;
			static inline void Endpoint_SelectEndpoint(const uint8_t Address)
			{
				#if !defined(CONTROL_ONLY_DEVICE)
					UENUM = (Address & ENDPOINT_EPNUM_MASK);
    7e70:	10 92 e9 00 	sts	0x00E9, r1
			 *  \return Boolean \c true if the selected endpoint has received a SETUP packet, \c false otherwise.
			 */
			static inline bool Endpoint_IsSETUPReceived(void) ATTR_WARN_UNUSED_RESULT ATTR_ALWAYS_INLINE;
			static inline bool Endpoint_IsSETUPReceived(void)
			{
				return ((UEINTX & (1 << RXSTPI)) ? true : false);
    7e74:	80 91 e8 00 	lds	r24, 0x00E8

	uint8_t PrevEndpoint = Endpoint_GetCurrentEndpoint();

	Endpoint_SelectEndpoint(ENDPOINT_CONTROLEP);

	if (Endpoint_IsSETUPReceived())
    7e78:	83 fd       	sbrc	r24, 3
	  USB_Device_ProcessControlRequest();
    7e7a:	d5 de       	rcall	.-598    	; 0x7c26 <USB_Device_ProcessControlRequest>
			 */
			static inline void Endpoint_SelectEndpoint(const uint8_t Address) ATTR_ALWAYS_INLINE;
			static inline void Endpoint_SelectEndpoint(const uint8_t Address)
			{
				#if !defined(CONTROL_ONLY_DEVICE)
					UENUM = (Address & ENDPOINT_EPNUM_MASK);
    7e7c:	cf 70       	andi	r28, 0x0F	; 15
    7e7e:	c0 93 e9 00 	sts	0x00E9, r28
	#elif defined(USB_CAN_BE_HOST)
		USB_HostTask();
	#elif defined(USB_CAN_BE_DEVICE)
		USB_DeviceTask();
	#endif
}
    7e82:	cf 91       	pop	r28
    7e84:	08 95       	ret

00007e86 <_exit>:
    7e86:	f8 94       	cli

00007e88 <__stop_program>:
    7e88:	ff cf       	rjmp	.-2      	; 0x7e88 <__stop_program>
